; Copyright 2024 The TensorFlow Authors. All Rights Reserved.

; Licensed under the Apache License, Version 2.0 (the "License");
; you may not use this file except in compliance with the License.
; You may obtain a copy of the License at
;
;     http://www.apache.org/licenses/LICENSE-2.0
;
; Unless required by applicable law or agreed to in writing, software
; distributed under the License is distributed on an "AS IS" BASIS,
; WITHOUT WARRANTIES OR CONDITIONS OF ANY KIND, either express or implied.
; See the License for the specific language governing permissions and
; limitations under the License.

; This file is manually created by removing all entries and running the Windows
; presubmit (machina/official/presubmit/critique/windows_x86_2022).
; The linker then fails with `undefined symbol` errors, and the missing symbols
; are added, sorted and de-duplicated here.
; NOTE: Symbols beginning with `__imp_` should have that prefix removed, e.g.
; `__imp_??1OpDef@machina@@UEAA@XZ` becomes `??1OpDef@machina@@UEAA@XZ`.

; go/keep-sorted start skip_lines=1
EXPORTS
  ??$Accept@PEAVHloInstruction@xla@@@HloInstruction@xla@@QEAA?AVStatus@lts_20250512@absl@@PEAV?$DfsHloVisitorBase@PEAVHloInstruction@xla@@@1@_N11@Z
  ??$Accept@PEBVHloInstruction@xla@@@HloInstruction@xla@@QEAA?AVStatus@lts_20250512@absl@@PEAV?$DfsHloVisitorBase@PEBVHloInstruction@xla@@@1@_N11@Z
  ??$CopyToEncodedBuffer@$0A@@LogMessage@log_internal@lts_20250512@absl@@AEAAXV?$basic_string_view@DU?$char_traits@D@std@@@std@@@Z
  ??$Dispatch@H@FormatArgImpl@str_format_internal@lts_20250512@absl@@CA_NTData@0123@VFormatConversionSpecImpl@123@PEAX@Z
  ??$Dispatch@PEBD@FormatArgImpl@str_format_internal@lts_20250512@absl@@CA_NTData@0123@VFormatConversionSpecImpl@123@PEAX@Z
  ??$Dispatch@V?$basic_string@DU?$char_traits@D@std@@V?$allocator@D@2@@std@@@FormatArgImpl@str_format_internal@lts_20250512@absl@@CA_NTData@0123@VFormatConversionSpecImpl@123@PEAX@Z
  ??$Dispatch@V?$basic_string_view@DU?$char_traits@D@std@@@std@@@FormatArgImpl@str_format_internal@lts_20250512@absl@@CA_NTData@0123@VFormatConversionSpecImpl@123@PEAX@Z
  ??$GrowSooTableToNextCapacityAndPrepareInsert@$07$00@container_internal@lts_20250512@absl@@YA_KAEAVCommonFields@012@AEBUPolicyFunctions@012@_KW4ctrl_t@012@@Z
  ??$GrowSooTableToNextCapacityAndPrepareInsert@$0A@$0A@@container_internal@lts_20250512@absl@@YA_KAEAVCommonFields@012@AEBUPolicyFunctions@012@_KW4ctrl_t@012@@Z
  ??$GrowSooTableToNextCapacityAndPrepareInsert@$0BA@$00@container_internal@lts_20250512@absl@@YA_KAEAVCommonFields@012@AEBUPolicyFunctions@012@_KW4ctrl_t@012@@Z
  ??$Visit@PEAVHloInstruction@xla@@@HloInstruction@xla@@QEAA?AVStatus@lts_20250512@absl@@PEAV?$DfsHloVisitorBase@PEAVHloInstruction@xla@@@1@@Z
  ??$Visit@PEBVHloInstruction@xla@@@HloInstruction@xla@@QEAA?AVStatus@lts_20250512@absl@@PEAV?$DfsHloVisitorBase@PEBVHloInstruction@xla@@@1@@Z
  ??$eigen_device@UThreadPoolDevice@Eigen@@@OpKernelContext@machina@@QEBAAEBUThreadPoolDevice@Eigen@@XZ
  ??0?$TensorShapeBase@VPartialTensorShape@machina@@@machina@@QEAA@XZ
  ??0?$TensorShapeBase@VTensorShape@machina@@@machina@@QEAA@V?$Span@$$CB_J@lts_20250512@absl@@@Z
  ??0?$TensorShapeBase@VTensorShape@machina@@@machina@@QEAA@XZ
  ??0ArithDialect@arith@mlir@@AEAA@PEAVMLIRContext@2@@Z
  ??0AttrSlice@machina@@QEAA@AEBVNodeDef@1@@Z
  ??0AttrValue@machina@@IEAA@PEAVArena@protobuf@google@@@Z
  ??0BufferedInputStream@io@tsl@@QEAA@PEAVInputStreamInterface@12@_K_N@Z
  ??0CalibrationOptions@quantization@stablehlo@@IEAA@PEAVArena@protobuf@google@@@Z
  ??0CalibrationStatistics@calibrator@machina@@IEAA@PEAVArena@protobuf@google@@@Z
  ??0CancellationManager@tsl@@QEAA@XZ
  ??0CheckOpMessageBuilder@internal@tsl@@QEAA@PEBD@Z
  ??0CheckpointReader@checkpoint@machina@@QEAA@AEBV?$basic_string@DU?$char_traits@D@std@@V?$allocator@D@2@@std@@PEAUTSL_Status@@@Z
  ??0ConfigProto@machina@@IEAA@PEAVArena@protobuf@google@@@Z
  ??0ConfigProto@machina@@IEAA@PEAVArena@protobuf@google@@AEBV01@@Z
  ??0CoordinatedTask@machina@@IEAA@PEAVArena@protobuf@google@@@Z
  ??0Cord@lts_20250512@absl@@AEAA@V?$basic_string_view@DU?$char_traits@D@std@@@std@@W4MethodIdentifier@CordzUpdateTracker@cord_internal@12@@Z
  ??0CostAnalyzer@grappler@machina@@QEAA@AEBUGrapplerItem@12@PEAVCluster@12@AEBV?$basic_string@DU?$char_traits@D@std@@V?$allocator@D@2@@std@@@Z
  ??0DataServiceMetadata@data@machina@@IEAA@PEAVArena@protobuf@google@@@Z
  ??0DeviceAttributes@machina@@IEAA@PEAVArena@protobuf@google@@AEBV01@@Z
  ??0DeviceProperties@machina@@IEAA@PEAVArena@protobuf@google@@@Z
  ??0DialectRegistry@mlir@@QEAA@XZ
  ??0DispatcherConfig@experimental@data@machina@@IEAA@PEAVArena@protobuf@google@@@Z
  ??0EventsWriter@machina@@QEAA@AEBV?$basic_string@DU?$char_traits@D@std@@V?$allocator@D@2@@std@@@Z
  ??0ExportedModel@quantization@machina@@IEAA@PEAVArena@protobuf@google@@@Z
  ??0FileCheck@toolchain@@QEAA@UFileCheckRequest@1@@Z
  ??0FingerprintDef@machina@@IEAA@PEAVArena@protobuf@google@@@Z
  ??0FingerprintDef@machina@@IEAA@PEAVArena@protobuf@google@@AEBV01@@Z
  ??0FrozenStackTrace@machina@@QEAA@V?$Span@$$CBUStackFrame@tsl@@@lts_20250512@absl@@0@Z
  ??0FuncDialect@func@mlir@@AEAA@PEAVMLIRContext@2@@Z
  ??0FunctionDef@machina@@IEAA@PEAVArena@protobuf@google@@@Z
  ??0FunctionParameterCanonicalizer@machina@@QEAA@V?$Span@PEBD@lts_20250512@absl@@V?$Span@PEAU_object@@@34@@Z
  ??0FunctionRecord@machina@@QEAA@$$QEAVFunctionDef@1@$$QEAV?$flat_hash_map@V?$basic_string@DU?$char_traits@D@std@@V?$allocator@D@2@@std@@V?$shared_ptr@VAbstractStackTrace@machina@@@2@UStringHash@container_internal@lts_20250512@absl@@UStringEq@567@V?$allocator@U?$pair@$$CBV?$basic_string@DU?$char_traits@D@std@@V?$allocator@D@2@@std@@V?$shared_ptr@VAbstractStackTrace@machina@@@2@@std@@@2@@lts_20250512@absl@@_N@Z
  ??0GraphDebugInfoBuilder@machina@@QEAA@XZ
  ??0GraphDef@machina@@IEAA@PEAVArena@protobuf@google@@@Z
  ??0GraphDef@machina@@IEAA@PEAVArena@protobuf@google@@AEBV01@@Z
  ??0HistogramProto@machina@@IEAA@PEAVArena@protobuf@google@@@Z
  ??0Impl@MakeErrorStream@status_macros@xla@@QEAA@PEBDHW4Code@error@machina@@PEAV123@_N@Z
  ??0LayoutProto@dtensor@machina@@IEAA@PEAVArena@protobuf@google@@@Z
  ??0LayoutProto@dtensor@machina@@IEAA@PEAVArena@protobuf@google@@AEBV012@@Z
  ??0LogMessage@internal@tsl@@QEAA@PEBDHW4LogSeverity@lts_20250512@absl@@@Z
  ??0LogMessage@log_internal@lts_20250512@absl@@QEAA@PEBDHUInfoTag@0123@@Z
  ??0LogMessageFatal@internal@tsl@@QEAA@PEBDH@Z
  ??0LogMessageFatal@log_internal@lts_20250512@absl@@QEAA@PEBDH0@Z
  ??0LogMessageFatal@log_internal@lts_20250512@absl@@QEAA@PEBDH@Z
  ??0MLIRContext@mlir@@QEAA@AEBVDialectRegistry@1@W4Threading@01@@Z
  ??0MeasuringCostEstimator@grappler@machina@@QEAA@PEAVCluster@12@HH@Z
  ??0MeshProto@dtensor@machina@@IEAA@PEAVArena@protobuf@google@@@Z
  ??0MeshProto@dtensor@machina@@IEAA@PEAVArena@protobuf@google@@AEBV012@@Z
  ??0MessageDifferencer@util@protobuf@google@@QEAA@XZ
  ??0MetaGraphDef@machina@@IEAA@PEAVArena@protobuf@google@@@Z
  ??0MetaOptimizer@grappler@machina@@QEAA@PEAVDeviceBase@2@AEBVConfigProto@2@@Z
  ??0ModelAnalyzer@grappler@machina@@QEAA@AEBUGrapplerItem@12@@Z
  ??0Name@register_kernel@machina@@QEAA@PEBD@Z
  ??0NamedDevice@machina@@IEAA@PEAVArena@protobuf@google@@@Z
  ??0NamedDevice@machina@@IEAA@PEAVArena@protobuf@google@@AEBV01@@Z
  ??0NodeDef@machina@@IEAA@PEAVArena@protobuf@google@@AEBV01@@Z
  ??0OpDef@machina@@IEAA@PEAVArena@protobuf@google@@AEBV01@@Z
  ??0OpDefBuilder@machina@@QEAA@V?$basic_string@DU?$char_traits@D@std@@V?$allocator@D@2@@std@@@Z
  ??0OpKernel@machina@@QEAA@PEAVOpKernelConstruction@1@@Z
  ??0OpLevelCostEstimator@grappler@machina@@QEAA@XZ
  ??0OpPerformanceList@machina@@IEAA@PEAVArena@protobuf@google@@@Z
  ??0PyInstanceChecker@py_dispatch@machina@@QEAA@AEBV?$vector@PEAU_object@@V?$allocator@PEAU_object@@@std@@@std@@@Z
  ??0PySignatureChecker@py_dispatch@machina@@QEAA@V?$vector@U?$pair@HV?$shared_ptr@VPyTypeChecker@py_dispatch@machina@@@std@@@std@@V?$allocator@U?$pair@HV?$shared_ptr@VPyTypeChecker@py_dispatch@machina@@@std@@@std@@@2@@std@@@Z
  ??0PythonAPIDispatcher@py_dispatch@machina@@QEAA@AEBV?$basic_string@DU?$char_traits@D@std@@V?$allocator@D@2@@std@@V?$Span@PEBD@lts_20250512@absl@@V?$Span@PEAU_object@@@67@@Z
  ??0PythonAPIInfo@machina@@QEAA@AEBV?$basic_string@DU?$char_traits@D@std@@V?$allocator@D@2@@std@@@Z
  ??0QuantizationConfig@quantization@stablehlo@@IEAA@PEAVArena@protobuf@google@@@Z
  ??0QuantizationOptions@quantization@machina@@IEAA@PEAVArena@protobuf@google@@@Z
  ??0QueueRunnerDef@machina@@IEAA@PEAVArena@protobuf@google@@AEBV01@@Z
  ??0RandomAccessInputStream@io@tsl@@QEAA@PEAVRandomAccessFile@2@_N@Z
  ??0RecordReader@io@tsl@@QEAA@PEAVRandomAccessFile@2@AEBURecordReaderOptions@12@@Z
  ??0RecordWriter@io@tsl@@QEAA@PEAVWritableFile@2@AEBURecordWriterOptions@12@@Z
  ??0RepresentativeDatasetFile@quantization@machina@@IEAA@PEAVArena@protobuf@google@@@Z
  ??0RunMetadata@machina@@IEAA@PEAVArena@protobuf@google@@@Z
  ??0SCFDialect@scf@mlir@@AEAA@PEAVMLIRContext@2@@Z
  ??0SessionOptions@machina@@QEAA@XZ
  ??0ShapeDialect@shape@mlir@@AEAA@PEAVMLIRContext@2@@Z
  ??0SignatureDef@machina@@IEAA@PEAVArena@protobuf@google@@@Z
  ??0SimpleFieldComparator@util@protobuf@google@@QEAA@XZ
  ??0SingleMachine@grappler@machina@@QEAA@HHH@Z
  ??0SourceMgrDiagnosticHandler@mlir@@QEAA@AEAVSourceMgr@toolchain@@PEAVMLIRContext@1@$$QEAV?$unique_function@$$A6A_NVLocation@mlir@@@Z@3@@Z
  ??0SparseCoreLayoutStacker@tpu@machina@@QEAA@H_NH@Z
  ??0SrcBuffer@SourceMgr@toolchain@@QEAA@$$QEAU012@@Z
  ??0StatSummarizer@machina@@QEAA@AEBUStatSummarizerOptions@tsl@@@Z
  ??0StatSummarizer@machina@@QEAA@AEBVGraphDef@1@@Z
  ??0Status@lts_20250512@absl@@QEAA@W4StatusCode@12@V?$basic_string_view@DU?$char_traits@D@std@@@std@@@Z
  ??0StepStats@machina@@IEAA@PEAVArena@protobuf@google@@@Z
  ??0TFRDialect@TFR@mlir@@QEAA@PEAVMLIRContext@2@@Z
  ??0TapeContext@gradients@machina@@QEAA@PEAVAbstractContext@2@PEAVTape@12@AEBVGradientRegistry@12@@Z
  ??0Tensor@machina@@QEAA@XZ
  ??0TensorFlowDialect@TF@mlir@@QEAA@PEAVMLIRContext@2@@Z
  ??0VirtualCluster@grappler@machina@@QEAA@AEBV?$unordered_map@V?$basic_string@DU?$char_traits@D@std@@V?$allocator@D@2@@std@@VDeviceProperties@machina@@U?$hash@V?$basic_string@DU?$char_traits@D@std@@V?$allocator@D@2@@std@@@2@U?$equal_to@V?$basic_string@DU?$char_traits@D@std@@V?$allocator@D@2@@std@@@2@V?$allocator@U?$pair@$$CBV?$basic_string@DU?$char_traits@D@std@@V?$allocator@D@2@@std@@VDeviceProperties@machina@@@std@@@2@@std@@@Z
  ??0WorkerConfig@experimental@data@machina@@IEAA@PEAVArena@protobuf@google@@@Z
  ??1ApiDefMap@machina@@QEAA@XZ
  ??1AttrValue@machina@@UEAA@XZ
  ??1Block@mlir@@QEAA@XZ
  ??1BundleReader@machina@@QEAA@XZ
  ??1CalibrationOptions@quantization@stablehlo@@UEAA@XZ
  ??1CalibrationStatistics@calibrator@machina@@UEAA@XZ
  ??1CancellationManager@tsl@@QEAA@XZ
  ??1CheckOpMessageBuilder@internal@tsl@@QEAA@XZ
  ??1ConfigProto@machina@@UEAA@XZ
  ??1CoordinatedTask@machina@@UEAA@XZ
  ??1DataServiceMetadata@data@machina@@UEAA@XZ
  ??1DeviceAttributes@machina@@UEAA@XZ
  ??1DeviceProperties@machina@@UEAA@XZ
  ??1DispatcherConfig@experimental@data@machina@@UEAA@XZ
  ??1EagerExecutor@machina@@QEAA@XZ
  ??1EventsWriter@machina@@QEAA@XZ
  ??1ExportedModel@quantization@machina@@UEAA@XZ
  ??1FileCheck@toolchain@@QEAA@XZ
  ??1FingerprintDef@machina@@UEAA@XZ
  ??1FunctionDef@machina@@UEAA@XZ
  ??1GraphDef@machina@@UEAA@XZ
  ??1HistogramProto@machina@@UEAA@XZ
  ??1Impl@MakeErrorStream@status_macros@xla@@QEAA@XZ
  ??1KernelDefBuilder@machina@@QEAA@XZ
  ??1LayoutProto@dtensor@machina@@UEAA@XZ
  ??1LogMessage@internal@tsl@@UEAA@XZ
  ??1LogMessage@log_internal@lts_20250512@absl@@QEAA@XZ
  ??1LogMessageFatal@internal@tsl@@UEAA@XZ
  ??1LogMessageFatal@log_internal@lts_20250512@absl@@QEAA@XZ
  ??1MLIRContext@mlir@@QEAA@XZ
  ??1MeshProto@dtensor@machina@@UEAA@XZ
  ??1MessageDifferencer@util@protobuf@google@@QEAA@XZ
  ??1MetaGraphDef@machina@@UEAA@XZ
  ??1NamedDevice@machina@@UEAA@XZ
  ??1NodeDef@machina@@UEAA@XZ
  ??1OpDef@machina@@UEAA@XZ
  ??1OpInfo_TensorProperties@machina@@UEAA@XZ
  ??1OpKernel@machina@@UEAA@XZ
  ??1OpPerformanceList@machina@@UEAA@XZ
  ??1ProfilerServer@profiler@tsl@@QEAA@XZ
  ??1ProfilerSession@tsl@@QEAA@XZ
  ??1PyContextManager@machina@@QEAA@XZ
  ??1QuantizationConfig@quantization@stablehlo@@UEAA@XZ
  ??1QuantizationOptions@quantization@machina@@UEAA@XZ
  ??1QueueRunnerDef@machina@@UEAA@XZ
  ??1RecordWriter@io@tsl@@QEAA@XZ
  ??1RepresentativeDatasetFile@quantization@machina@@UEAA@XZ
  ??1ResourceHandle@machina@@QEAA@XZ
  ??1RunMetadata@machina@@UEAA@XZ
  ??1SignatureDef@machina@@UEAA@XZ
  ??1SimpleFieldComparator@util@protobuf@google@@UEAA@XZ
  ??1SourceMgrDiagnosticHandler@mlir@@QEAA@XZ
  ??1SparseCoreTableLayout@tpu@machina@@UEAA@XZ
  ??1SparseCoreTableLayouts@tpu@machina@@UEAA@XZ
  ??1SrcBuffer@SourceMgr@toolchain@@QEAA@XZ
  ??1StatSummarizer@machina@@QEAA@XZ
  ??1StepStats@machina@@UEAA@XZ
  ??1TapeTensor@gradients@machina@@QEAA@XZ
  ??1Tensor@machina@@QEAA@XZ
  ??1ThreadPool@thread@tsl@@QEAA@XZ
  ??1Variant@machina@@QEAA@XZ
  ??1WorkerConfig@experimental@data@machina@@UEAA@XZ
  ??6LogMessage@log_internal@lts_20250512@absl@@QEAAAEAV0123@AEBV?$basic_string@DU?$char_traits@D@std@@V?$allocator@D@2@@std@@@Z
  ??8Layout@dtensor@machina@@QEBA_NAEBV012@@Z
  ??8Mesh@dtensor@machina@@QEBA_NAEBV012@@Z
  ??BCord@lts_20250512@absl@@QEBA?AV?$basic_string@DU?$char_traits@D@std@@V?$allocator@D@2@@std@@XZ
  ??ROpDefBuilderWrapper@register_op@machina@@QEAA?AUInitOnStartupMarker@2@XZ
  ?AccumulateStackTrace@GraphDebugInfoBuilder@machina@@QEAAXV?$shared_ptr@VAbstractStackTrace@machina@@@std@@V?$basic_string_view@DU?$char_traits@D@std@@@4@AEBUOptions@12@@Z
  ?Add@InferenceContext@shape_inference@machina@@QEAA?AVStatus@lts_20250512@absl@@VDimensionHandle@23@UDimensionOrConstant@23@PEAV723@@Z
  ?Add@ThreadSafeHistogram@histogram@tsl@@QEAAXN@Z
  ?AddControlEdge@Graph@machina@@QEAAPEBVEdge@2@PEAVNode@2@0_N@Z
  ?AddDevices@DeviceFactory@machina@@SA?AVStatus@lts_20250512@absl@@AEBUSessionOptions@2@AEBV?$basic_string@DU?$char_traits@D@std@@V?$allocator@D@2@@std@@PEAV?$vector@V?$unique_ptr@VDevice@machina@@U?$default_delete@VDevice@machina@@@std@@@std@@V?$allocator@V?$unique_ptr@VDevice@machina@@U?$default_delete@VDevice@machina@@@std@@@std@@@2@@8@@Z
  ?AddMesh@dtensor@machina@@YAXAEBV?$basic_string@DU?$char_traits@D@std@@V?$allocator@D@2@@std@@PEAX_NPEAUTSL_Status@@@Z
  ?AddRegisterer@gradients@machina@@YAPEAVGradientFunction@12@AEBUForwardOperation@12@@Z
  ?AddStep@tfprof@machina@@YAN_JPEBV?$basic_string@DU?$char_traits@D@std@@V?$allocator@D@2@@std@@11@Z
  ?AddTable@SparseCoreLayoutStacker@tpu@machina@@QEAA?AVStatus@lts_20250512@absl@@V?$basic_string_view@DU?$char_traits@D@std@@@std@@_J101@Z
  ?AddV2@ops@machina@@YA?AVStatus@lts_20250512@absl@@PEAVAbstractContext@2@QEAVAbstractTensorHandle@2@1PEAPEAV72@PEBD3@Z
  ?AddWhileInputHack@machina@@YAXPEAUTF_Graph@@UTF_Output@@PEAUTF_Operation@@PEAUTSL_Status@@@Z
  ?AllocateDTensorDevice@dtensor@machina@@YAXV?$basic_string_view@DU?$char_traits@D@std@@@std@@PEAUTFE_CustomDevice@@PEAPEAX_NHPEAUTSL_Status@@@Z
  ?AllowSoftPlacement@Cluster@grappler@machina@@QEAAX_N@Z
  ?AlreadyExistsError@lts_20250512@absl@@YA?AVStatus@12@V?$basic_string_view@DU?$char_traits@D@std@@@std@@@Z
  ?AppendGraphDebugInfoStr@GraphDebugInfoBuilder@machina@@QEAA?AVStatus@lts_20250512@absl@@V?$basic_string_view@DU?$char_traits@D@std@@@std@@0@Z
  ?AppendPieces@strings_internal@lts_20250512@absl@@YAXPEAV?$basic_string@DU?$char_traits@D@std@@V?$allocator@D@2@@std@@V?$initializer_list@V?$basic_string_view@DU?$char_traits@D@std@@@std@@@5@@Z
  ?AreCompatibleDevNames@DeviceNameUtils@tsl@@SA_NAEBUParsedName@12@0@Z
  ?AssertSameStructure@swig@machina@@YAPEAU_object@@PEAU3@0_N1@Z
  ?AssertSameStructureForData@swig@machina@@YAPEAU_object@@PEAU3@0_N@Z
  ?AsyncCheckpointWriteDuration@metrics@machina@@YAAEAVSamplerCell@monitoring@tsl@@V?$basic_string_view@DU?$char_traits@D@std@@@std@@@Z
  ?Attr@OpDefBuilder@machina@@QEAAAEAV12@V?$basic_string@DU?$char_traits@D@std@@V?$allocator@D@2@@std@@@Z
  ?AttrValueToPyObject@machina@@YA?AV?$unique_ptr@U_object@@UPyDecrefDeleter@detail@machina@@@std@@AEBVAttrValue@1@@Z
  ?AttributeTypeFromName@machina@@YA?AW4AttributeType@1@AEBV?$basic_string@DU?$char_traits@D@std@@V?$allocator@D@2@@std@@@Z
  ?BatchShardedOnMesh@Layout@dtensor@machina@@SA?AV123@AEBVMesh@23@HAEBV?$basic_string@DU?$char_traits@D@std@@V?$allocator@D@2@@std@@H@Z
  ?BoundPort@GrpcDataServerBase@data@machina@@QEAAHXZ
  ?Build@KernelDefBuilder@machina@@QEAAPEBVKernelDef@2@XZ
  ?Canonicalize@FunctionParameterCanonicalizer@machina@@QEAA_NPEAU_object@@0V?$Span@PEAU_object@@@lts_20250512@absl@@@Z
  ?Capture@StackTrace@machina@@SA?AV?$shared_ptr@VStackTrace@machina@@@std@@H@Z
  ?CatPieces@internal@strings@tsl@@YA?AV?$basic_string@DU?$char_traits@D@std@@V?$allocator@D@2@@std@@V?$initializer_list@V?$basic_string_view@DU?$char_traits@D@std@@@std@@@5@@Z
  ?CatPieces@strings_internal@lts_20250512@absl@@YA?AV?$basic_string@DU?$char_traits@D@std@@V?$allocator@D@2@@std@@V?$initializer_list@V?$basic_string_view@DU?$char_traits@D@std@@@std@@@5@@Z
  ?Check@PyListChecker@py_dispatch@machina@@UEAA?AW4MatchType@PyTypeChecker@23@PEAU_object@@@Z
  ?Check@PyUnionChecker@py_dispatch@machina@@UEAA?AW4MatchType@PyTypeChecker@23@PEAU_object@@@Z
  ?CheckCanonicalizedArgs@PySignatureChecker@py_dispatch@machina@@QEBA_NV?$Span@PEAU_object@@@lts_20250512@absl@@@Z
  ?CheckDimsEqual@TensorShape@machina@@AEBAXH@Z
  ?CheckIsAlignedAndSingleElement@Tensor@machina@@AEBAXXZ
  ?CheckNotDone@MakeErrorStream@status_macros@xla@@AEBAXXZ
  ?CheckNotInComputeAsync@machina@@YAXPEAVOpKernelContext@1@PEBD@Z
  ?CheckOpDeprecation@machina@@YA?AVStatus@lts_20250512@absl@@AEBVOpDef@1@H@Z
  ?CheckTypeAndIsAligned@Tensor@machina@@AEBAXW4DataType@2@@Z
  ?CheckpointReadDuration@metrics@machina@@YAAEAVSamplerCell@monitoring@tsl@@V?$basic_string_view@DU?$char_traits@D@std@@@std@@@Z
  ?CheckpointSize@metrics@machina@@YAAEAVCounterCell@monitoring@tsl@@V?$basic_string_view@DU?$char_traits@D@std@@@std@@_J@Z
  ?CheckpointWriteDuration@metrics@machina@@YAAEAVSamplerCell@monitoring@tsl@@V?$basic_string_view@DU?$char_traits@D@std@@@std@@@Z
  ?Clear@TFE_TensorHandleCache@machina@@QEAAXXZ
  ?ClearAttr@machina@@YAXPEAUTF_Graph@@PEAUTF_Operation@@PEBDPEAUTSL_Status@@@Z
  ?ClearBackingArray@container_internal@lts_20250512@absl@@YAXAEAVCommonFields@123@AEBUPolicyFunctions@123@PEAX_N3@Z
  ?ClearTPUCoreIDs@dtensor@machina@@YAXPEAX@Z
  ?Close@DebugEventsWriter@tfdbg@machina@@QEAA?AVStatus@lts_20250512@absl@@XZ
  ?Close@EventsWriter@machina@@QEAA?AVStatus@lts_20250512@absl@@XZ
  ?Close@RecordWriter@io@tsl@@QEAA?AVStatus@lts_20250512@absl@@XZ
  ?CollectUnreachableRoots@HloComputation@xla@@AEBA?AV?$vector@PEAVHloInstruction@xla@@V?$allocator@PEAVHloInstruction@xla@@@std@@@std@@XZ
  ?CommittedChunksDirectory@data@machina@@YA?AV?$basic_string@DU?$char_traits@D@std@@V?$allocator@D@2@@std@@V?$basic_string_view@DU?$char_traits@D@std@@@4@@Z
  ?Compare@DefaultFieldComparator@util@protobuf@google@@UEAA?AW4ComparisonResult@FieldComparator@234@AEBVMessage@34@0PEBVFieldDescriptor@34@HHPEBVFieldContext@234@@Z
  ?Compare@MessageDifferencer@util@protobuf@google@@QEAA_NAEBVMessage@34@0@Z
  ?Compute@AsyncOpKernel@machina@@UEAAXPEAVOpKernelContext@2@@Z
  ?ComputeGradient@Tape@gradients@machina@@QEAA?AVStatus@lts_20250512@absl@@PEAVAbstractContext@3@V?$Span@QEAVAbstractTensorHandle@machina@@@56@11V?$Span@PEAVAbstractTensorHandle@machina@@@56@@Z
  ?Convert@PythonTensorConverter@machina@@QEBA?AV?$unique_ptr@U_object@@UPyDecrefDeleter@detail@machina@@@std@@PEAU_object@@AEAW4DataType@2@PEA_N@Z
  ?Convert@tflite@@YAPEAU_object@@PEAU2@00_N0PEBVPyFunctionLibrary@quantization@machina@@@Z
  ?ConvertPyObjectToAttributeType@machina@@YA?AV?$unique_ptr@U_object@@UPyDecrefDeleter@detail@machina@@@std@@PEAU_object@@W4AttributeType@1@@Z
  ?ConvertPythonAPIParameters@machina@@YA_NAEBVPythonAPIInfo@1@AEBVPythonTensorConverter@1@V?$Span@PEAU_object@@@lts_20250512@absl@@PEAUInferredAttributes@21@@Z
  ?ConvertToEagerTensor@machina@@YAPEAUTFE_TensorHandle@@PEAUTFE_Context@@PEAU_object@@W4DataType@1@PEBD@Z
  ?Copy@container_internal@lts_20250512@absl@@YAXAEAVCommonFields@123@AEBUPolicyFunctions@123@AEBV4123@V?$FunctionRef@$$A6AXPEAXPEBX@Z@23@@Z
  ?CopyFile@Env@tsl@@QEAA?AVStatus@lts_20250512@absl@@AEBV?$basic_string@DU?$char_traits@D@std@@V?$allocator@D@2@@std@@0@Z
  ?CopyFrom@AttrValue@machina@@QEAAXAEBV12@@Z
  ?CopyFrom@ConfigProto@machina@@QEAAXAEBV12@@Z
  ?CopyFrom@DeviceProperties@machina@@QEAAXAEBV12@@Z
  ?CopyFrom@FunctionDef@machina@@QEAAXAEBV12@@Z
  ?CopyFrom@NodeDef@machina@@QEAAXAEBV12@@Z
  ?CopyFrom@StepStats@machina@@QEAAXAEBV12@@Z
  ?CopyPythonAPITensorLists@machina@@YA_NAEBVPythonAPIInfo@1@V?$Span@PEAU_object@@@lts_20250512@absl@@@Z
  ?CostGraphToOpPerformanceData@grappler@machina@@YA?AVOpPerformanceList@2@AEBVCostGraphDef@2@AEBVGraphDef@2@@Z
  ?Crash@Helper@internal_statusor@lts_20250512@absl@@SAXAEBVStatus@34@@Z
  ?Create@PtrOpKernelFactory@OpKernelRegistrar@kernel_factory@machina@@UEAAPEAVOpKernel@4@PEAVOpKernelConstruction@4@@Z
  ?CreateDir@Env@tsl@@QEAA?AVStatus@lts_20250512@absl@@AEBV?$basic_string@DU?$char_traits@D@std@@V?$allocator@D@2@@std@@@Z
  ?CreateFingerprintDef@fingerprinting@saved_model@machina@@YA?AV?$StatusOr@VFingerprintDef@machina@@@lts_20250512@absl@@V?$basic_string_view@DU?$char_traits@D@std@@@std@@@Z
  ?CreateMesh@Mesh@dtensor@machina@@SA?AV123@AEBV?$basic_string@DU?$char_traits@D@std@@V?$allocator@D@2@@std@@AEBV?$vector@V?$basic_string@DU?$char_traits@D@std@@V?$allocator@D@2@@std@@V?$allocator@V?$basic_string@DU?$char_traits@D@std@@V?$allocator@D@2@@std@@@2@@5@AEBV?$vector@_JV?$allocator@_J@std@@@5@2121_N@Z
  ?CreateRecordReaderOptions@RecordReaderOptions@io@tsl@@SA?AU123@AEBV?$basic_string@DU?$char_traits@D@std@@V?$allocator@D@2@@std@@@Z
  ?CreateRecordWriterOptions@RecordWriterOptions@io@tsl@@SA?AU123@AEBV?$basic_string@DU?$char_traits@D@std@@V?$allocator@D@2@@std@@@Z
  ?CreateTypeInfoAndReturnTypeIdImpl@AsyncValue@tsl@@CAGAEBUTypeInfo@12@@Z
  ?CtxFailure@OpKernelConstruction@machina@@QEAAXPEBDHAEBVStatus@lts_20250512@absl@@@Z
  ?CtxFailure@OpKernelContext@machina@@QEAAXPEBDHAEBVStatus@lts_20250512@absl@@@Z
  ?CtxFailureWithWarning@OpKernelConstruction@machina@@QEAAXPEBDHAEBVStatus@lts_20250512@absl@@@Z
  ?CtxFailureWithWarning@OpKernelContext@machina@@QEAAXPEBDHAEBVStatus@lts_20250512@absl@@@Z
  ?DataTypeSize@machina@@YAHW4DataType@1@@Z
  ?DataTypeString@machina@@YA?AV?$basic_string@DU?$char_traits@D@std@@V?$allocator@D@2@@std@@W4DataType@1@@Z
  ?DataTypeToPyObject@machina@@YA?AV?$unique_ptr@U_object@@UPyDecrefDeleter@detail@machina@@@std@@AEBW4DataType@1@@Z
  ?DataType_internal_data_@machina@@3QBIB
  ?DebugInfo@PythonAPIInfo@machina@@QEBA?AV?$basic_string@DU?$char_traits@D@std@@V?$allocator@D@2@@std@@XZ
  ?DebugString@CheckpointReader@checkpoint@machina@@QEBA?BV?$basic_string@DU?$char_traits@D@std@@V?$allocator@D@2@@std@@XZ
  ?DebugString@InferenceContext@shape_inference@machina@@QEAA?AV?$basic_string@DU?$char_traits@D@std@@V?$allocator@D@2@@std@@VShapeHandle@23@@Z
  ?DebugString@InferenceContext@shape_inference@machina@@QEBA?AV?$basic_string@DU?$char_traits@D@std@@V?$allocator@D@2@@std@@XZ
  ?DebugString@PyListChecker@py_dispatch@machina@@UEBA?AV?$basic_string@DU?$char_traits@D@std@@V?$allocator@D@2@@std@@XZ
  ?DebugString@PySignatureChecker@py_dispatch@machina@@QEBA?AV?$basic_string@DU?$char_traits@D@std@@V?$allocator@D@2@@std@@XZ
  ?DebugString@PyUnionChecker@py_dispatch@machina@@UEBA?AV?$basic_string@DU?$char_traits@D@std@@V?$allocator@D@2@@std@@XZ
  ?DebugString@PythonAPIDispatcher@py_dispatch@machina@@QEBA?AV?$basic_string@DU?$char_traits@D@std@@V?$allocator@D@2@@std@@XZ
  ?DebugString@Tensor@machina@@QEBA?AV?$basic_string@DU?$char_traits@D@std@@V?$allocator@D@2@@std@@H@Z
  ?DebugString@TensorShapeRep@machina@@QEBA?AV?$basic_string@DU?$char_traits@D@std@@V?$allocator@D@2@@std@@XZ
  ?Default@Env@tsl@@SAPEAV12@XZ
  ?DefaultProtocol@data@machina@@YA?AV?$basic_string@DU?$char_traits@D@std@@V?$allocator@D@2@@std@@XZ
  ?DeleteFile@Env@tsl@@QEAA?AVStatus@lts_20250512@absl@@AEBV?$basic_string@DU?$char_traits@D@std@@V?$allocator@D@2@@std@@@Z
  ?DeleteProfiler@tfprof@machina@@YAXXZ
  ?DeleteRecursively@Env@tsl@@QEAA?AVStatus@lts_20250512@absl@@AEBV?$basic_string@DU?$char_traits@D@std@@V?$allocator@D@2@@std@@PEA_J1@Z
  ?DestroyCordSlow@Cord@lts_20250512@absl@@AEAAXXZ
  ?DestroyEagerContextThreadLocalData@machina@@YAXPEAU_object@@@Z
  ?DestructorOutOfLine@TensorShapeRep@machina@@AEAAXXZ
  ?DetailedStatsEnabled@Cluster@grappler@machina@@QEBA_NXZ
  ?Device@KernelDefBuilder@machina@@QEAAAEAV12@PEBD@Z
  ?DisableDetailedStats@Cluster@grappler@machina@@QEAAX_N@Z
  ?Dispatch@PythonAPIDispatcher@py_dispatch@machina@@QEAA?AV?$unique_ptr@U_object@@UPyDecrefDeleter@detail@machina@@@std@@PEAU_object@@0@Z
  ?DivNoNan@ops@machina@@YA?AVStatus@lts_20250512@absl@@PEAVAbstractContext@2@QEAVAbstractTensorHandle@2@1PEAPEAV72@PEBD3@Z
  ?DivNoNanRegisterer@gradients@machina@@YAPEAVGradientFunction@12@AEBUForwardOperation@12@@Z
  ?Divide@InferenceContext@shape_inference@machina@@QEAA?AVStatus@lts_20250512@absl@@VDimensionHandle@23@UDimensionOrConstant@23@_NPEAV723@@Z
  ?DoQuantizeTrainingOnSerializedGraphDef@machina@@YA?AVStatus@lts_20250512@absl@@AEBV?$basic_string@DU?$char_traits@D@std@@V?$allocator@D@2@@std@@H0PEAV56@@Z
  ?Doc@OpDefBuilder@machina@@QEAAAEAV12@V?$basic_string@DU?$char_traits@D@std@@V?$allocator@D@2@@std@@@Z
  ?EagerTensorFromHandle@@YAPEAU_object@@PEAUTFE_TensorHandle@@_N@Z
  ?EagerTensor_CheckExact@@YA_NPEBU_object@@@Z
  ?EagerTensor_Handle@@YAPEAUTFE_TensorHandle@@PEBU_object@@@Z
  ?EinsumShape@shape_inference@machina@@YA?AVStatus@lts_20250512@absl@@PEAVInferenceContext@12@@Z
  ?EnableOpDeterminism@tsl@@YAX_N@Z
  ?EncodeToProto@ThreadSafeHistogram@histogram@tsl@@QEBAXPEAVHistogramProto@machina@@_N@Z
  ?EnqueueOpsFanin@GrapplerItem@grappler@machina@@QEBA?AV?$vector@PEBVNodeDef@machina@@V?$allocator@PEBVNodeDef@machina@@@std@@@std@@XZ
  ?EnsureInitialized@DataServiceDispatcherClient@data@machina@@MEAA?AVStatus@lts_20250512@absl@@XZ
  ?Enter@PyContextManager@machina@@QEAA_NPEAU_object@@@Z
  ?EqualAttrValueWrapper@machina@@YA?AV?$basic_string@DU?$char_traits@D@std@@V?$allocator@D@2@@std@@AEBV23@0@Z
  ?EqualGraphDefWrapper@machina@@YA?AV?$basic_string@DU?$char_traits@D@std@@V?$allocator@D@2@@std@@AEBV23@0@Z
  ?EraseMetaOnly@container_internal@lts_20250512@absl@@YAXAEAVCommonFields@123@_K1@Z
  ?ExpRegisterer@gradients@machina@@YAPEAVGradientFunction@12@AEBUForwardOperation@12@@Z
  ?ExperimentalClearDefaultLayout@dtensor@machina@@YAXPEAXPEAUTSL_Status@@@Z
  ?ExperimentalClearDefaultMesh@dtensor@machina@@YAXPEAXPEAUTSL_Status@@@Z
  ?ExperimentalConvertSavedModelToMlir@machina@@YA?AV?$basic_string@DU?$char_traits@D@std@@V?$allocator@D@2@@std@@AEBV23@0_NPEAUTSL_Status@@@Z
  ?ExperimentalConvertSavedModelV1ToMlir@machina@@YA?AV?$basic_string@DU?$char_traits@D@std@@V?$allocator@D@2@@std@@AEBV23@00_N111PEAUTSL_Status@@@Z
  ?ExperimentalConvertSavedModelV1ToMlirLite@machina@@YA?AV?$basic_string@DU?$char_traits@D@std@@V?$allocator@D@2@@std@@AEBV23@00_N1PEAUTSL_Status@@@Z
  ?ExperimentalRunPassPipeline@machina@@YA?AV?$basic_string@DU?$char_traits@D@std@@V?$allocator@D@2@@std@@AEBV23@0_NPEAUTSL_Status@@@Z
  ?ExperimentalSetDefaultLayout@dtensor@machina@@YAXAEBV?$basic_string@DU?$char_traits@D@std@@V?$allocator@D@2@@std@@PEAXPEAUTSL_Status@@@Z
  ?ExperimentalSetDefaultMesh@dtensor@machina@@YAXAEBV?$basic_string@DU?$char_traits@D@std@@V?$allocator@D@2@@std@@PEAXPEAUTSL_Status@@@Z
  ?ExperimentalWriteBytecode@machina@@YAXAEBV?$basic_string@DU?$char_traits@D@std@@V?$allocator@D@2@@std@@0PEAUTSL_Status@@@Z
  ?ExportToTensorBoard@ProfilerSessionWrapper@pywrap@profiler@machina@@QEAA?AVStatus@lts_20250512@absl@@XZ
  ?ExtendSession@machina@@YAXPEAUTF_Session@@PEAUTSL_Status@@@Z
  ?FailedPreconditionError@lts_20250512@absl@@YA?AVStatus@12@V?$basic_string_view@DU?$char_traits@D@std@@@std@@@Z
  ?FastInt32ToBufferLeft@strings@tsl@@YA_KHPEAD@Z
  ?FastInt64ToBufferLeft@strings@tsl@@YA_K_JPEAD@Z
  ?FastIntToBuffer@numbers_internal@lts_20250512@absl@@YAPEADHPEAD@Z
  ?FastIntToBuffer@numbers_internal@lts_20250512@absl@@YAPEAD_JPEAD@Z
  ?FastIntToBuffer@numbers_internal@lts_20250512@absl@@YAPEAD_KPEAD@Z
  ?FastUInt64ToBufferLeft@strings@tsl@@YA_K_KPEAD@Z
  ?FetchLayout@dtensor@machina@@YA?AV?$basic_string@DU?$char_traits@D@std@@V?$allocator@D@2@@std@@PEAUTFE_Context@@PEAUTFE_TensorHandle@@PEAXPEAUTSL_Status@@@Z
  ?FileExists@Env@tsl@@QEAA?AVStatus@lts_20250512@absl@@AEBV?$basic_string@DU?$char_traits@D@std@@V?$allocator@D@2@@std@@@Z
  ?FileName@EventsWriter@machina@@QEAA?AV?$basic_string@DU?$char_traits@D@std@@V?$allocator@D@2@@std@@XZ
  ?Find@ByChar@lts_20250512@absl@@QEBA?AV?$basic_string_view@DU?$char_traits@D@std@@@std@@V45@_K@Z
  ?FindKernelDef@machina@@YA?AVStatus@lts_20250512@absl@@AEBVDeviceType@tsl@@AEBVNodeDef@1@PEAPEBVKernelDef@1@PEAV?$basic_string@DU?$char_traits@D@std@@V?$allocator@D@2@@std@@@Z
  ?FlatBufferFileToMlir@tflite@@YA?AV?$basic_string@DU?$char_traits@D@std@@V?$allocator@D@2@@std@@AEBV23@_N@Z
  ?Flatten@swig@machina@@YAPEAU_object@@PEAU3@_N@Z
  ?FlattenDictItems@machina@@YAPEAU_object@@PEAU2@@Z
  ?FlattenForData@swig@machina@@YAPEAU_object@@PEAU3@@Z
  ?Flush@EventsWriter@machina@@QEAA?AVStatus@lts_20250512@absl@@XZ
  ?Flush@LogMessage@log_internal@lts_20250512@absl@@QEAAXXZ
  ?Flush@RecordWriter@io@tsl@@QEAA?AVStatus@lts_20250512@absl@@XZ
  ?FlushExecutionFiles@DebugEventsWriter@tfdbg@machina@@QEAA?AVStatus@lts_20250512@absl@@XZ
  ?FlushNonExecutionFiles@DebugEventsWriter@tfdbg@machina@@QEAA?AVStatus@lts_20250512@absl@@XZ
  ?ForEachPayload@StatusRep@status_internal@lts_20250512@absl@@QEBAXV?$FunctionRef@$$A6AXV?$basic_string_view@DU?$char_traits@D@std@@@std@@AEBVCord@lts_20250512@absl@@@Z@34@@Z
  ?ForVar2@CheckOpMessageBuilder@internal@tsl@@QEAAPEAV?$basic_ostream@DU?$char_traits@D@std@@@std@@XZ
  ?FormatConvertImpl@str_format_internal@lts_20250512@absl@@YA?AU?$ArgConvertResult@$0IAAAE@@123@AEBV?$basic_string@DU?$char_traits@D@std@@V?$allocator@D@2@@std@@VFormatConversionSpecImpl@123@PEAVFormatSinkImpl@123@@Z
  ?FormatPack@str_format_internal@lts_20250512@absl@@YA?AV?$basic_string@DU?$char_traits@D@std@@V?$allocator@D@2@@std@@VUntypedFormatSpecImpl@123@V?$Span@$$CBVFormatArgImpl@str_format_internal@lts_20250512@absl@@@23@@Z
  ?FromProto@Layout@dtensor@machina@@SA?AV?$StatusOr@VLayout@dtensor@machina@@@lts_20250512@absl@@AEBVLayoutProto@23@@Z
  ?FromString@Layout@dtensor@machina@@SA?AV?$StatusOr@VLayout@dtensor@machina@@@lts_20250512@absl@@V?$basic_string_view@DU?$char_traits@D@std@@@std@@@Z
  ?FromString@Mesh@dtensor@machina@@SA?AV?$StatusOr@VMesh@dtensor@machina@@@lts_20250512@absl@@V?$basic_string_view@DU?$char_traits@D@std@@@std@@@Z
  ?GenerateReport@CostAnalyzer@grappler@machina@@QEAA?AVStatus@lts_20250512@absl@@AEAV?$basic_ostream@DU?$char_traits@D@std@@@std@@_N1@Z
  ?GenerateReport@ModelAnalyzer@grappler@machina@@QEAA?AVStatus@lts_20250512@absl@@_N0AEAV?$basic_ostream@DU?$char_traits@D@std@@@std@@@Z
  ?GenericProtoCast@pybind11_protobuf@@YA?AVhandle@pybind11@@PEAVMessage@protobuf@google@@W4return_value_policy@3@V23@_N@Z
  ?Get@TFE_TensorHandleCache@machina@@SAPEAU12@XZ
  ?GetAnyDeviceDetails@DeviceFactory@machina@@SA?AVStatus@lts_20250512@absl@@HPEAV?$unordered_map@V?$basic_string@DU?$char_traits@D@std@@V?$allocator@D@2@@std@@V12@U?$hash@V?$basic_string@DU?$char_traits@D@std@@V?$allocator@D@2@@std@@@2@U?$equal_to@V?$basic_string@DU?$char_traits@D@std@@V?$allocator@D@2@@std@@@2@V?$allocator@U?$pair@$$CBV?$basic_string@DU?$char_traits@D@std@@V?$allocator@D@2@@std@@V12@@std@@@2@@std@@@Z
  ?GetChildren@Env@tsl@@QEAA?AVStatus@lts_20250512@absl@@AEBV?$basic_string@DU?$char_traits@D@std@@V?$allocator@D@2@@std@@PEAV?$vector@V?$basic_string@DU?$char_traits@D@std@@V?$allocator@D@2@@std@@V?$allocator@V?$basic_string@DU?$char_traits@D@std@@V?$allocator@D@2@@std@@@2@@7@@Z
  ?GetCompilerIr@machina@@YA?AV?$StatusOr@V?$basic_string@DU?$char_traits@D@std@@V?$allocator@D@2@@std@@@lts_20250512@absl@@W4IrExportStage@1@PEAVProcessFunctionLibraryRuntime@1@V?$basic_string_view@DU?$char_traits@D@std@@@std@@2PEAVEagerContext@1@V?$Span@$$CBUArgShapeAndDType@machina@@@34@V?$Span@QEBVTensorHandle@machina@@@34@W4CompilerArgSource@1@@Z
  ?GetCompilerIr@machina@@YA?AV?$StatusOr@V?$basic_string@DU?$char_traits@D@std@@V?$allocator@D@2@@std@@@lts_20250512@absl@@W4IrExportStage@1@PEAVProcessFunctionLibraryRuntime@1@V?$basic_string_view@DU?$char_traits@D@std@@@std@@PEAVDevice@1@PEAVEagerContext@1@V?$Span@$$CBUArgShapeAndDType@machina@@@34@V?$Span@QEBVTensorHandle@machina@@@34@W4CompilerArgSource@1@@Z
  ?GetCurrentTimeNanos@profiler@tsl@@YA_JXZ
  ?GetDataServiceMetadata@DataServiceDispatcherClient@data@machina@@QEAA?AVStatus@lts_20250512@absl@@AEBV?$basic_string@DU?$char_traits@D@std@@V?$allocator@D@2@@std@@AEAVDataServiceMetadata@23@@Z
  ?GetDebugEventsWriter@DebugEventsWriter@tfdbg@machina@@SAPEAV123@AEBV?$basic_string@DU?$char_traits@D@std@@V?$allocator@D@2@@std@@0_J@Z
  ?GetDeviceInfo@OpLevelCostEstimator@grappler@machina@@UEBA?AUDeviceInfo@23@AEBVDeviceProperties@3@@Z
  ?GetDeviceInfo@grappler@machina@@YA?AVDeviceProperties@2@AEBUParsedName@DeviceNameUtils@tsl@@@Z
  ?GetEagerContextThreadLocalData@machina@@YAPEAUEagerContextThreadLocalData@1@PEAU_object@@@Z
  ?GetFileSize@Env@tsl@@QEAA?AVStatus@lts_20250512@absl@@AEBV?$basic_string@DU?$char_traits@D@std@@V?$allocator@D@2@@std@@PEA_K@Z
  ?GetHandleShapeAndType@machina@@YA?AV?$basic_string@DU?$char_traits@D@std@@V?$allocator@D@2@@std@@PEAUTF_Graph@@UTF_Output@@@Z
  ?GetLayout@Layout@dtensor@machina@@SA?AV?$StatusOr@VLayout@dtensor@machina@@@lts_20250512@absl@@W4LayoutType@123@AEBV?$vector@V?$basic_string@DU?$char_traits@D@std@@V?$allocator@D@2@@std@@V?$allocator@V?$basic_string@DU?$char_traits@D@std@@V?$allocator@D@2@@std@@@2@@std@@AEBVMesh@23@@Z
  ?GetLayouts@SparseCoreLayoutStacker@tpu@machina@@QEAA?AV?$StatusOr@VSparseCoreTableLayouts@tpu@machina@@@lts_20250512@absl@@XZ
  ?GetLinkedTensorRTVersion@tensorrt@machina@@YA?AV?$tuple@HHH@std@@XZ
  ?GetLoadedTensorRTVersion@tensorrt@machina@@YA?AV?$tuple@HHH@std@@XZ
  ?GetMetadata@FunctionDef@machina@@QEBA?AUMetadata@protobuf@google@@XZ
  ?GetMetadata@FunctionDefLibrary@machina@@QEBA?AUMetadata@protobuf@google@@XZ
  ?GetMetadata@GraphDef@machina@@QEBA?AUMetadata@protobuf@google@@XZ
  ?GetMetadata@LayoutProto@dtensor@machina@@QEBA?AUMetadata@protobuf@google@@XZ
  ?GetMetadata@MeshProto@dtensor@machina@@QEBA?AUMetadata@protobuf@google@@XZ
  ?GetMetadata@MetaGraphDef@machina@@QEBA?AUMetadata@protobuf@google@@XZ
  ?GetMlirCommonFlags@machina@@YAPEAUMlirCommonFlags@1@XZ
  ?GetNodeAttr@machina@@YA?AVStatus@lts_20250512@absl@@AEBVAttrSlice@1@V?$basic_string_view@DU?$char_traits@D@std@@@std@@PEAH@Z
  ?GetNodeAttr@machina@@YA?AVStatus@lts_20250512@absl@@AEBVAttrSlice@1@V?$basic_string_view@DU?$char_traits@D@std@@@std@@PEAM@Z
  ?GetNodeAttr@machina@@YA?AVStatus@lts_20250512@absl@@AEBVAttrSlice@1@V?$basic_string_view@DU?$char_traits@D@std@@@std@@PEAV?$basic_string@DU?$char_traits@D@std@@V?$allocator@D@2@@7@@Z
  ?GetNodeAttr@machina@@YA?AVStatus@lts_20250512@absl@@AEBVAttrSlice@1@V?$basic_string_view@DU?$char_traits@D@std@@@std@@PEAV?$vector@VPartialTensorShape@machina@@V?$allocator@VPartialTensorShape@machina@@@std@@@7@@Z
  ?GetNodeAttr@machina@@YA?AVStatus@lts_20250512@absl@@AEBVAttrSlice@1@V?$basic_string_view@DU?$char_traits@D@std@@@std@@PEAV?$vector@VTensorShape@machina@@V?$allocator@VTensorShape@machina@@@std@@@7@@Z
  ?GetNodeAttr@machina@@YA?AVStatus@lts_20250512@absl@@AEBVAttrSlice@1@V?$basic_string_view@DU?$char_traits@D@std@@@std@@PEAV?$vector@_JV?$allocator@_J@std@@@7@@Z
  ?GetNodeAttr@machina@@YA?AVStatus@lts_20250512@absl@@AEBVAttrSlice@1@V?$basic_string_view@DU?$char_traits@D@std@@@std@@PEAVTensorShape@1@@Z
  ?GetNodeAttr@machina@@YA?AVStatus@lts_20250512@absl@@AEBVAttrSlice@1@V?$basic_string_view@DU?$char_traits@D@std@@@std@@PEAW4DataType@1@@Z
  ?GetNodeAttr@machina@@YA?AVStatus@lts_20250512@absl@@AEBVAttrSlice@1@V?$basic_string_view@DU?$char_traits@D@std@@@std@@PEA_J@Z
  ?GetNodeAttr@machina@@YA?AVStatus@lts_20250512@absl@@AEBVAttrSlice@1@V?$basic_string_view@DU?$char_traits@D@std@@@std@@PEA_N@Z
  ?GetNumAvailableGPUs@grappler@machina@@YAHAEBU?$pair@HH@std@@@Z
  ?GetNumAvailableLogicalCPUCores@grappler@machina@@YAHXZ
  ?GetOperationInputs@machina@@YA?AV?$vector@UTF_Output@@V?$allocator@UTF_Output@@@std@@@std@@PEAUTF_Operation@@@Z
  ?GetOutputProperties@GraphProperties@grappler@machina@@QEBAAEBV?$vector@VOpInfo_TensorProperties@machina@@V?$allocator@VOpInfo_TensorProperties@machina@@@std@@@std@@AEBV?$basic_string@DU?$char_traits@D@std@@V?$allocator@D@2@@5@@Z
  ?GetOutputString@StatsCalculator@tsl@@QEBA?AV?$basic_string@DU?$char_traits@D@std@@V?$allocator@D@2@@std@@XZ
  ?GetPythonWrappers@machina@@YA?AV?$basic_string@DU?$char_traits@D@std@@V?$allocator@D@2@@std@@PEBD_K@Z
  ?GetRefForEmptyClass@container_internal@lts_20250512@absl@@YAPEAXAEAVCommonFields@123@@Z
  ?GetRegisteredOpConverters@tensorrt@machina@@YA?AV?$vector@V?$basic_string@DU?$char_traits@D@std@@V?$allocator@D@2@@std@@V?$allocator@V?$basic_string@DU?$char_traits@D@std@@V?$allocator@D@2@@std@@@2@@std@@XZ
  ?GetRegisteredOps@OpRegistry@machina@@QEAAXPEAV?$vector@VOpDef@machina@@V?$allocator@VOpDef@machina@@@std@@@std@@@Z
  ?GetRegisteredXlaOpsForDevice@machina@@YA?AV?$StatusOr@V?$vector@V?$basic_string@DU?$char_traits@D@std@@V?$allocator@D@2@@std@@V?$allocator@V?$basic_string@DU?$char_traits@D@std@@V?$allocator@D@2@@std@@@2@@std@@@lts_20250512@absl@@V?$basic_string_view@DU?$char_traits@D@std@@@std@@@Z
  ?GetScalarFromTensor@InferenceContext@shape_inference@machina@@QEAA?AVStatus@lts_20250512@absl@@PEBVTensor@3@_JPEA_J@Z
  ?GetSingleDeviceMesh@Mesh@dtensor@machina@@SA?AV?$StatusOr@VMesh@dtensor@machina@@@lts_20250512@absl@@V?$basic_string_view@DU?$char_traits@D@std@@@std@@@Z
  ?GetSnapshotSplit@DataServiceDispatcherClient@data@machina@@UEAA?AVStatus@lts_20250512@absl@@AEBV?$basic_string@DU?$char_traits@D@std@@V?$allocator@D@2@@std@@0_J11AEAVTensor@3@AEA_JAEA_N@Z
  ?GetStats@dtensor@machina@@YA?AV?$unordered_map@V?$basic_string@DU?$char_traits@D@std@@V?$allocator@D@2@@std@@HU?$hash@V?$basic_string@DU?$char_traits@D@std@@V?$allocator@D@2@@std@@@2@U?$equal_to@V?$basic_string@DU?$char_traits@D@std@@V?$allocator@D@2@@std@@@2@V?$allocator@U?$pair@$$CBV?$basic_string@DU?$char_traits@D@std@@V?$allocator@D@2@@std@@H@std@@@2@@std@@PEAUTFE_Context@@PEAXPEAUTSL_Status@@@Z
  ?GetStatus@Impl@MakeErrorStream@status_macros@xla@@QEAA?AVStatus@lts_20250512@absl@@XZ
  ?GetTableStacks@machina@@YA?AV?$vector@V?$vector@V?$basic_string@DU?$char_traits@D@std@@V?$allocator@D@2@@std@@V?$allocator@V?$basic_string@DU?$char_traits@D@std@@V?$allocator@D@2@@std@@@2@@std@@V?$allocator@V?$vector@V?$basic_string@DU?$char_traits@D@std@@V?$allocator@D@2@@std@@V?$allocator@V?$basic_string@DU?$char_traits@D@std@@V?$allocator@D@2@@std@@@2@@std@@@2@@std@@AEBV?$vector@_JV?$allocator@_J@std@@@3@000AEBV?$vector@V?$basic_string@DU?$char_traits@D@std@@V?$allocator@D@2@@std@@V?$allocator@V?$basic_string@DU?$char_traits@D@std@@V?$allocator@D@2@@std@@@2@@3@_J@Z
  ?GetTensor@CheckpointReader@checkpoint@machina@@QEBAXAEBV?$basic_string@DU?$char_traits@D@std@@V?$allocator@D@2@@std@@PEAV?$unique_ptr@VTensor@machina@@U?$default_delete@VTensor@machina@@@std@@@5@PEAUTSL_Status@@@Z
  ?GetUserFrames@FrozenStackTrace@machina@@UEBA?AV?$vector@UStackFrame@tsl@@V?$allocator@UStackFrame@tsl@@@std@@@std@@H@Z
  ?GetVariableToDataTypeMap@CheckpointReader@checkpoint@machina@@QEBAAEBV?$unordered_map@V?$basic_string@DU?$char_traits@D@std@@V?$allocator@D@2@@std@@W4DataType@machina@@U?$hash@V?$basic_string@DU?$char_traits@D@std@@V?$allocator@D@2@@std@@@2@U?$equal_to@V?$basic_string@DU?$char_traits@D@std@@V?$allocator@D@2@@std@@@2@V?$allocator@U?$pair@$$CBV?$basic_string@DU?$char_traits@D@std@@V?$allocator@D@2@@std@@W4DataType@machina@@@std@@@2@@std@@XZ
  ?GetVariableToShapeMap@CheckpointReader@checkpoint@machina@@QEBAAEBV?$unordered_map@V?$basic_string@DU?$char_traits@D@std@@V?$allocator@D@2@@std@@VTensorShape@machina@@U?$hash@V?$basic_string@DU?$char_traits@D@std@@V?$allocator@D@2@@std@@@2@U?$equal_to@V?$basic_string@DU?$char_traits@D@std@@V?$allocator@D@2@@std@@@2@V?$allocator@U?$pair@$$CBV?$basic_string@DU?$char_traits@D@std@@V?$allocator@D@2@@std@@VTensorShape@machina@@@std@@@2@@std@@XZ
  ?GetXlaDeviceFlags@machina@@YAPEAUXlaDeviceFlags@1@XZ
  ?Global@OpRegistry@machina@@SAPEAV12@XZ
  ?Global@flags@machina@@YAAEAVFlags@12@XZ
  ?GlobalShapeFromLocalShape@Layout@dtensor@machina@@QEBA?AV?$vector@_JV?$allocator@_J@std@@@std@@V?$Span@$$CB_J@lts_20250512@absl@@PEBV?$vector@V?$vector@_JV?$allocator@_J@std@@@std@@V?$allocator@V?$vector@_JV?$allocator@_J@std@@@std@@@2@@5@@Z
  ?GpuSupportsHalfMatMulAndConv@machina@@YA_NXZ
  ?GrapplerItemFromMetaGraphDef@grappler@machina@@YA?AV?$unique_ptr@UGrapplerItem@grappler@machina@@U?$default_delete@UGrapplerItem@grappler@machina@@@std@@@std@@AEBV?$basic_string@DU?$char_traits@D@std@@V?$allocator@D@2@@4@AEBVMetaGraphDef@2@AEBUItemConfig@12@@Z
  ?HandleInvalidStatusCtorArg@Helper@internal_statusor@lts_20250512@absl@@SAXPEAVStatus@34@@Z
  ?HasAtomicMove@Env@tsl@@QEAA?AVStatus@lts_20250512@absl@@AEBV?$basic_string@DU?$char_traits@D@std@@V?$allocator@D@2@@std@@PEA_N@Z
  ?HasTensor@CheckpointReader@checkpoint@machina@@QEBA_NAEBV?$basic_string@DU?$char_traits@D@std@@V?$allocator@D@2@@std@@@Z
  ?Hash64@tsl@@YA_KPEBD_K1@Z
  ?ImportFunction@machina@@YA?AV?$basic_string@DU?$char_traits@D@std@@V?$allocator@D@2@@std@@AEBV23@0_NPEAUTFE_Context@@PEAUTSL_Status@@@Z
  ?ImportGraphDef@machina@@YA?AV?$basic_string@DU?$char_traits@D@std@@V?$allocator@D@2@@std@@AEBV23@0_NPEAUTSL_Status@@@Z
  ?ImportGraphDef@machina@@YA?AV?$basic_string@DU?$char_traits@D@std@@V?$allocator@D@2@@std@@AEBV23@0_NV?$basic_string_view@DU?$char_traits@D@std@@@3@222PEAUTSL_Status@@@Z
  ?ImportNumpy@tsl@@YAXXZ
  ?ImportStatusModule@google@pybind11@@YA?AVmodule_@2@_N@Z
  ?InferDynamically@GraphMemory@grappler@machina@@QEAA?AVStatus@lts_20250512@absl@@PEAVCluster@23@@Z
  ?InferStatically@GraphMemory@grappler@machina@@QEAA?AVStatus@lts_20250512@absl@@AEBV?$unordered_map@V?$basic_string@DU?$char_traits@D@std@@V?$allocator@D@2@@std@@VDeviceProperties@machina@@U?$hash@V?$basic_string@DU?$char_traits@D@std@@V?$allocator@D@2@@std@@@2@U?$equal_to@V?$basic_string@DU?$char_traits@D@std@@V?$allocator@D@2@@std@@@2@V?$allocator@U?$pair@$$CBV?$basic_string@DU?$char_traits@D@std@@V?$allocator@D@2@@std@@VDeviceProperties@machina@@@std@@@2@@std@@@Z
  ?InferStatically@GraphProperties@grappler@machina@@QEAA?AVStatus@lts_20250512@absl@@_N000@Z
  ?InfoAboutUnusedCPUFeatures@port@machina@@YAXXZ
  ?Init@DebugEventsWriter@tfdbg@machina@@QEAA?AVStatus@lts_20250512@absl@@XZ
  ?Init@PyExceptionRegistry@machina@@SAXPEAU_object@@@Z
  ?InitInternal@OpKernelRegistrar@kernel_factory@machina@@AEAAXPEBVKernelDef@3@V?$basic_string_view@DU?$char_traits@D@std@@@std@@V?$unique_ptr@VOpKernelFactory@kernel_factory@machina@@U?$default_delete@VOpKernelFactory@kernel_factory@machina@@@std@@@6@@Z
  ?InitWithSuffix@EventsWriter@machina@@QEAA?AVStatus@lts_20250512@absl@@AEBV?$basic_string@DU?$char_traits@D@std@@V?$allocator@D@2@@std@@@Z
  ?Initialize@AnalyticalCostEstimator@grappler@machina@@UEAA?AVStatus@lts_20250512@absl@@AEBUGrapplerItem@23@@Z
  ?Initialize@DataServiceDispatcherClient@data@machina@@UEAA?AVStatus@lts_20250512@absl@@XZ
  ?Initialize@MeasuringCostEstimator@grappler@machina@@UEAA?AVStatus@lts_20250512@absl@@AEBUGrapplerItem@23@@Z
  ?InitializeFromParamSpecs@PythonAPIInfo@machina@@QEAA?AVStatus@lts_20250512@absl@@AEBV?$map@V?$basic_string@DU?$char_traits@D@std@@V?$allocator@D@2@@std@@V12@U?$less@V?$basic_string@DU?$char_traits@D@std@@V?$allocator@D@2@@std@@@2@V?$allocator@U?$pair@$$CBV?$basic_string@DU?$char_traits@D@std@@V?$allocator@D@2@@std@@V12@@std@@@2@@std@@0V?$vector@V?$basic_string@DU?$char_traits@D@std@@V?$allocator@D@2@@std@@V?$allocator@V?$basic_string@DU?$char_traits@D@std@@V?$allocator@D@2@@std@@@2@@7@PEAU_object@@@Z
  ?InitializeFromRegisteredOp@PythonAPIInfo@machina@@QEAA?AVStatus@lts_20250512@absl@@AEBV?$basic_string@DU?$char_traits@D@std@@V?$allocator@D@2@@std@@@Z
  ?InitializePyTrampoline@machina@@YAXPEAU_object@@@Z
  ?InitializePybindProtoCastUtil@pybind11_protobuf@@YAXXZ
  ?Input@OpDefBuilder@machina@@QEAAAEAV12@V?$basic_string@DU?$char_traits@D@std@@V?$allocator@D@2@@std@@@Z
  ?InstallStacktraceHandler@testing@tsl@@YAXXZ
  ?InternalError@lts_20250512@absl@@YA?AVStatus@12@V?$basic_string_view@DU?$char_traits@D@std@@@std@@@Z
  ?InvalidArgumentError@lts_20250512@absl@@YA?AVStatus@12@V?$basic_string_view@DU?$char_traits@D@std@@@std@@@Z
  ?IsAArch32Available@machina@@YA_NXZ
  ?IsAArch64Available@machina@@YA_NXZ
  ?IsAlreadyExists@lts_20250512@absl@@YA_NAEBVStatus@12@@Z
  ?IsAttrs@swig@machina@@YA_NPEAU_object@@@Z
  ?IsBatchParallel@Layout@dtensor@machina@@QEBA_NXZ
  ?IsBuiltWithNvcc@machina@@YA_NXZ
  ?IsBuiltWithROCm@machina@@YA_NXZ
  ?IsBuiltWithXLA@machina@@YA_NXZ
  ?IsCompositeTensor@swig@machina@@YA_NPEAU_object@@@Z
  ?IsCoreTypeValue@swig@machina@@YA_NPEAU_object@@@Z
  ?IsDTensor@dtensor@machina@@YA_NPEAUTFE_Context@@PEAUTFE_TensorHandle@@PEAXPEAUTSL_Status@@@Z
  ?IsDataTypeSupportedByOneDNNOnThisCPU@machina@@YA_NAEBW4DataType@1@@Z
  ?IsDirectory@Env@tsl@@QEAA?AVStatus@lts_20250512@absl@@AEBV?$basic_string@DU?$char_traits@D@std@@V?$allocator@D@2@@std@@@Z
  ?IsEagerTensorSlow@swig@machina@@YA_NPEAU_object@@@Z
  ?IsFailedPrecondition@lts_20250512@absl@@YA_NAEBVStatus@12@@Z
  ?IsFullyReplicated@Layout@dtensor@machina@@QEBA_NXZ
  ?IsGoogleCudaEnabled@machina@@YA_NXZ
  ?IsGoogleTensorRTEnabled@tensorrt@machina@@YA_NXZ
  ?IsMapping@swig@machina@@YA_NPEAU_object@@@Z
  ?IsMappingView@swig@machina@@YA_NPEAU_object@@@Z
  ?IsMeshDim@Mesh@dtensor@machina@@QEBA_NAEBV?$basic_string@DU?$char_traits@D@std@@V?$allocator@D@2@@std@@@Z
  ?IsMklEnabled@machina@@YA_NXZ
  ?IsMutableMapping@swig@machina@@YA_NPEAU_object@@@Z
  ?IsNamedtuple@swig@machina@@YAPEAU_object@@PEAU3@_N@Z
  ?IsNested@swig@machina@@YA_NPEAU_object@@@Z
  ?IsNestedForData@swig@machina@@YA_NPEAU_object@@@Z
  ?IsNestedOrComposite@swig@machina@@YA_NPEAU_object@@@Z
  ?IsOutOfRange@lts_20250512@absl@@YA_NAEBVStatus@12@@Z
  ?IsPowerPCAvailable@machina@@YA_NXZ
  ?IsResourceVariable@swig@machina@@YA_NPEAU_object@@@Z
  ?IsSameAddressSpace@DeviceNameUtils@tsl@@SA_NV?$basic_string_view@DU?$char_traits@D@std@@@std@@0@Z
  ?IsSameSize@TensorShape@machina@@QEBA_NAEBV12@@Z
  ?IsSparseDTensor@dtensor@machina@@YA_NPEAUTFE_Context@@PEAUTFE_TensorHandle@@PEAXPEAUTSL_Status@@@Z
  ?IsSystemZAvailable@machina@@YA_NXZ
  ?IsTensor@swig@machina@@YA_NPEAU_object@@@Z
  ?IsTensorProtocol@swig@machina@@YA_NPEAU_object@@@Z
  ?IsTensorSpec@swig@machina@@YA_NPEAU_object@@@Z
  ?IsTypeSpec@swig@machina@@YA_NPEAU_object@@@Z
  ?IsVariable@swig@machina@@YA_NPEAU_object@@@Z
  ?IsX86Available@machina@@YA_NXZ
  ?IterateOverFullSlots@container_internal@lts_20250512@absl@@YAXAEBVCommonFields@123@_KV?$FunctionRef@$$A6AXPEBW4ctrl_t@container_internal@lts_20250512@absl@@PEAX@Z@23@@Z
  ?Join@GrpcDataServerBase@data@machina@@QEAAXXZ
  ?LastUserFrame@FrozenStackTrace@machina@@UEBA?AUStackFrame@tsl@@XZ
  ?ListAllPhysicalDevices@DeviceFactory@machina@@SA?AVStatus@lts_20250512@absl@@PEAV?$vector@V?$basic_string@DU?$char_traits@D@std@@V?$allocator@D@2@@std@@V?$allocator@V?$basic_string@DU?$char_traits@D@std@@V?$allocator@D@2@@std@@@2@@std@@@Z
  ?ListPluggablePhysicalDevices@DeviceFactory@machina@@SA?AVStatus@lts_20250512@absl@@PEAV?$vector@V?$basic_string@DU?$char_traits@D@std@@V?$allocator@D@2@@std@@V?$allocator@V?$basic_string@DU?$char_traits@D@std@@V?$allocator@D@2@@std@@@2@@std@@@Z
  ?LoadTracesFromDebugInfoStr@machina@@YA?AV?$StatusOr@V?$flat_hash_map@V?$basic_string@DU?$char_traits@D@std@@V?$allocator@D@2@@std@@V?$shared_ptr@VAbstractStackTrace@machina@@@2@UStringHash@container_internal@lts_20250512@absl@@UStringEq@567@V?$allocator@U?$pair@$$CBV?$basic_string@DU?$char_traits@D@std@@V?$allocator@D@2@@std@@V?$shared_ptr@VAbstractStackTrace@machina@@@2@@std@@@2@@lts_20250512@absl@@@lts_20250512@absl@@V?$basic_string_view@DU?$char_traits@D@std@@@std@@@Z
  ?LocalShapeFromGlobalShape@Layout@dtensor@machina@@QEBA?AV?$vector@_JV?$allocator@_J@std@@@std@@V?$Span@$$CB_J@lts_20250512@absl@@@Z
  ?Lock@Mutex@lts_20250512@absl@@QEAAXXZ
  ?Log1p@ops@machina@@YA?AVStatus@lts_20250512@absl@@PEAVAbstractContext@2@QEAVAbstractTensorHandle@2@PEAPEAV72@PEBD3@Z
  ?Log1pRegisterer@gradients@machina@@YAPEAVGradientFunction@12@AEBUForwardOperation@12@@Z
  ?LookUpDebugEventsWriter@DebugEventsWriter@tfdbg@machina@@SA?AVStatus@lts_20250512@absl@@AEBV?$basic_string@DU?$char_traits@D@std@@V?$allocator@D@2@@std@@PEAPEAV123@@Z
  ?LookUpOpDef@OpRegistryInterface@machina@@QEBA?AVStatus@lts_20250512@absl@@AEBV?$basic_string@DU?$char_traits@D@std@@V?$allocator@D@2@@std@@PEAPEBVOpDef@2@@Z
  ?Lookup@PyExceptionRegistry@machina@@SAPEAU_object@@W4TSL_Code@@@Z
  ?Main@tfcompile@machina@@YA?AVStatus@lts_20250512@absl@@AEBUMainFlags@12@@Z
  ?MainOpsFanin@GrapplerItem@grappler@machina@@QEBA?AV?$vector@PEBVNodeDef@machina@@V?$allocator@PEBVNodeDef@machina@@@std@@@std@@XZ
  ?MakeEagerContextThreadLocalData@machina@@YAXPEAU_object@@00@Z
  ?MakeFingerprintJson@metrics@machina@@YA?AV?$basic_string@DU?$char_traits@D@std@@V?$allocator@D@2@@std@@VFingerprintDef@2@@Z
  ?MakeRefCountingHandle@ResourceHandle@machina@@SA?AV12@PEAVResourceBase@2@AEBV?$basic_string@DU?$char_traits@D@std@@V?$allocator@D@2@@std@@AEBVTypeIndex@2@AEBV?$vector@UDtypeAndPartialTensorShape@machina@@V?$allocator@UDtypeAndPartialTensorShape@machina@@@std@@@5@AEBV?$optional@VManagedStackTrace@machina@@@5@@Z
  ?MakeSavedModelPathAndSingleprint@metrics@machina@@YA?AV?$StatusOr@V?$basic_string@DU?$char_traits@D@std@@V?$allocator@D@2@@std@@@lts_20250512@absl@@V?$basic_string@DU?$char_traits@D@std@@V?$allocator@D@2@@std@@0@Z
  ?MakeShape@InferenceContext@shape_inference@machina@@QEAA?AVShapeHandle@23@AEBV?$vector@VDimensionHandle@shape_inference@machina@@V?$allocator@VDimensionHandle@shape_inference@machina@@@std@@@std@@@Z
  ?MakeShape@InferenceContext@shape_inference@machina@@QEAA?AVShapeHandle@23@V?$initializer_list@UDimensionOrConstant@shape_inference@machina@@@std@@@Z
  ?MakeShapeFromPartialTensorShape@InferenceContext@shape_inference@machina@@QEAA?AVStatus@lts_20250512@absl@@AEBVPartialTensorShape@3@PEAVShapeHandle@23@@Z
  ?MakeShapeFromShapeTensor@InferenceContext@shape_inference@machina@@QEAA?AVStatus@lts_20250512@absl@@HPEAVShapeHandle@23@@Z
  ?MakeShapeFromTensorShape@InferenceContext@shape_inference@machina@@QEAA?AVStatus@lts_20250512@absl@@AEBVTensorShape@3@PEAVShapeHandle@23@@Z
  ?MapToLocalCode@status_internal@lts_20250512@absl@@YA?AW4StatusCode@23@H@Z
  ?MatMul@ops@machina@@YA?AVStatus@lts_20250512@absl@@PEAVAbstractContext@2@QEAVAbstractTensorHandle@2@1PEAPEAV72@_N3PEBD4@Z
  ?MatMulRegisterer@gradients@machina@@YAPEAVGradientFunction@12@AEBUForwardOperation@12@@Z
  ?MatchSignature@OpKernelContext@machina@@QEAA?AVStatus@lts_20250512@absl@@V?$Span@$$CBW4DataType@machina@@@45@0@Z
  ?Matrix@InferenceContext@shape_inference@machina@@QEAA?AVShapeHandle@23@UDimensionOrConstant@23@0@Z
  ?MaybeRaiseExceptionFromTFStatus@machina@@YAHPEAUTSL_Status@@PEAU_object@@@Z
  ?MemoryTypesForNode@machina@@YA?AVStatus@lts_20250512@absl@@PEBVOpRegistryInterface@1@AEBVDeviceType@tsl@@AEBVNodeDef@1@PEAV?$InlinedVector@W4MemoryType@machina@@$03V?$allocator@W4MemoryType@machina@@@std@@@34@3@Z
  ?Merge@InferenceContext@shape_inference@machina@@QEAA?AVStatus@lts_20250512@absl@@VDimensionHandle@23@0PEAV723@@Z
  ?Merge@InferenceContext@shape_inference@machina@@QEAA?AVStatus@lts_20250512@absl@@VShapeHandle@23@0PEAV723@@Z
  ?MeshDimNames@Mesh@dtensor@machina@@QEBA?AV?$vector@V?$basic_string@DU?$char_traits@D@std@@V?$allocator@D@2@@std@@V?$allocator@V?$basic_string@DU?$char_traits@D@std@@V?$allocator@D@2@@std@@@2@@std@@XZ
  ?MlirQuantizeModel@tflite@@YAPEAU_object@@PEAU2@_N1HHH1100110@Z
  ?MlirSparsifyModel@tflite@@YAPEAU_object@@PEAU2@@Z
  ?Mul@ops@machina@@YA?AVStatus@lts_20250512@absl@@PEAVAbstractContext@2@QEAVAbstractTensorHandle@2@1PEAPEAV72@PEBD3@Z
  ?MulRegisterer@gradients@machina@@YAPEAVGradientFunction@12@AEBUForwardOperation@12@@Z
  ?Multiply@InferenceContext@shape_inference@machina@@QEAA?AVStatus@lts_20250512@absl@@VDimensionHandle@23@UDimensionOrConstant@23@PEAV723@@Z
  ?NameRangesForNode@machina@@YA?AVStatus@lts_20250512@absl@@AEBVAttrSlice@1@AEBVOpDef@1@PEAV?$FlatMap@V?$basic_string_view@DU?$char_traits@D@std@@@std@@U?$pair@HH@2@U?$hash@V?$basic_string_view@DU?$char_traits@D@std@@@std@@X@tsl@@U?$equal_to@V?$basic_string_view@DU?$char_traits@D@std@@@std@@@2@@gtl@tsl@@2@Z
  ?Neg@ops@machina@@YA?AVStatus@lts_20250512@absl@@PEAVAbstractContext@2@QEAVAbstractTensorHandle@2@PEAPEAV72@PEBD3@Z
  ?NegRegisterer@gradients@machina@@YAPEAVGradientFunction@12@AEBUForwardOperation@12@@Z
  ?NewAppendableFile@Env@tsl@@QEAA?AVStatus@lts_20250512@absl@@AEBV?$basic_string@DU?$char_traits@D@std@@V?$allocator@D@2@@std@@PEAV?$unique_ptr@VWritableFile@tsl@@U?$default_delete@VWritableFile@tsl@@@std@@@7@@Z
  ?NewDispatchServer@data@machina@@YA?AVStatus@lts_20250512@absl@@AEBVDispatcherConfig@experimental@12@AEAV?$unique_ptr@VDispatchGrpcDataServer@data@machina@@U?$default_delete@VDispatchGrpcDataServer@data@machina@@@std@@@std@@@Z
  ?NewProfiler@tfprof@machina@@YA_NPEBV?$basic_string@DU?$char_traits@D@std@@V?$allocator@D@2@@std@@0@Z
  ?NewRandomAccessFile@Env@tsl@@QEAA?AVStatus@lts_20250512@absl@@AEBV?$basic_string@DU?$char_traits@D@std@@V?$allocator@D@2@@std@@PEAV?$unique_ptr@VRandomAccessFile@tsl@@U?$default_delete@VRandomAccessFile@tsl@@@std@@@7@@Z
  ?NewString@CheckOpMessageBuilder@internal@tsl@@QEAAPEAV?$basic_string@DU?$char_traits@D@std@@V?$allocator@D@2@@std@@XZ
  ?NewWorkerServer@data@machina@@YA?AVStatus@lts_20250512@absl@@AEBVWorkerConfig@experimental@12@AEAV?$unique_ptr@VWorkerGrpcDataServer@data@machina@@U?$default_delete@VWorkerGrpcDataServer@data@machina@@@std@@@std@@@Z
  ?NewWritableFile@Env@tsl@@QEAA?AVStatus@lts_20250512@absl@@AEBV?$basic_string@DU?$char_traits@D@std@@V?$allocator@D@2@@std@@PEAV?$unique_ptr@VWritableFile@tsl@@U?$default_delete@VWritableFile@tsl@@@std@@@7@@Z
  ?NotFoundError@lts_20250512@absl@@YA?AVStatus@12@V?$basic_string_view@DU?$char_traits@D@std@@@std@@@Z
  ?NullTerminatedMessage@tsl@@YAPEBDAEBVStatus@lts_20250512@absl@@@Z
  ?NumCheckpointShardsWritten@metrics@machina@@YAAEAVCounterCell@monitoring@tsl@@XZ
  ?NumTasks@WorkerGrpcDataServer@data@machina@@QEAA?AVStatus@lts_20250512@absl@@PEAH@Z
  ?NumWorkers@DispatchGrpcDataServer@data@machina@@QEAA?AVStatus@lts_20250512@absl@@PEAH@Z
  ?OpDeterminismRequired@tsl@@YA_NXZ
  ?OptimizeConsumeItem@MetaOptimizer@grappler@machina@@QEAA?AVStatus@lts_20250512@absl@@PEAVCluster@23@$$QEAUGrapplerItem@23@PEAVGraphDef@3@@Z
  ?Output@OpDefBuilder@machina@@QEAAAEAV12@V?$basic_string@DU?$char_traits@D@std@@V?$allocator@D@2@@std@@@Z
  ?Pack@dtensor@machina@@YAPEAUTFE_TensorHandle@@PEAUTFE_Context@@HPEAPEAU3@AEBV?$basic_string@DU?$char_traits@D@std@@V?$allocator@D@2@@std@@PEAXPEAUTSL_Status@@@Z
  ?ParseFromProto@Mesh@dtensor@machina@@SA?AV?$StatusOr@VMesh@dtensor@machina@@@lts_20250512@absl@@AEBVMeshProto@23@@Z
  ?ParseFullName@DeviceNameUtils@tsl@@SA_NV?$basic_string_view@DU?$char_traits@D@std@@@std@@PEAUParsedName@12@@Z
  ?ParseFullOrLocalName@DeviceNameUtils@tsl@@SA_NV?$basic_string_view@DU?$char_traits@D@std@@@std@@PEAUParsedName@12@@Z
  ?ParseSavedModelPathAndSingleprint@metrics@machina@@YA?AV?$StatusOr@U?$pair@V?$basic_string@DU?$char_traits@D@std@@V?$allocator@D@2@@std@@V12@@std@@@lts_20250512@absl@@V?$basic_string@DU?$char_traits@D@std@@V?$allocator@D@2@@std@@@Z
  ?ParseTensorName@machina@@YA?AUTensorId@1@V?$basic_string_view@DU?$char_traits@D@std@@@std@@@Z
  ?ParseTransformParameters@graph_transforms@machina@@YA?AVStatus@lts_20250512@absl@@AEBV?$basic_string@DU?$char_traits@D@std@@V?$allocator@D@2@@std@@PEAV?$vector@U?$pair@V?$basic_string@DU?$char_traits@D@std@@V?$allocator@D@2@@std@@V?$map@V?$basic_string@DU?$char_traits@D@std@@V?$allocator@D@2@@std@@V?$vector@V?$basic_string@DU?$char_traits@D@std@@V?$allocator@D@2@@std@@V?$allocator@V?$basic_string@DU?$char_traits@D@std@@V?$allocator@D@2@@std@@@2@@2@U?$less@V?$basic_string@DU?$char_traits@D@std@@V?$allocator@D@2@@std@@@2@V?$allocator@U?$pair@$$CBV?$basic_string@DU?$char_traits@D@std@@V?$allocator@D@2@@std@@V?$vector@V?$basic_string@DU?$char_traits@D@std@@V?$allocator@D@2@@std@@V?$allocator@V?$basic_string@DU?$char_traits@D@std@@V?$allocator@D@2@@std@@@2@@2@@std@@@2@@2@@std@@V?$allocator@U?$pair@V?$basic_string@DU?$char_traits@D@std@@V?$allocator@D@2@@std@@V?$map@V?$basic_string@DU?$char_traits@D@std@@V?$allocator@D@2@@std@@V?$vector@V?$basic_string@DU?$char_traits@D@std@@V?$allocator@D@2@@std@@V?$allocator@V?$basic_string@DU?$char_traits@D@std@@V?$allocator@D@2@@std@@@2@@2@U?$less@V?$basic_string@DU?$char_traits@D@std@@V?$allocator@D@2@@std@@@2@V?$allocator@U?$pair@$$CBV?$basic_string@DU?$char_traits@D@std@@V?$allocator@D@2@@std@@V?$vector@V?$basic_string@DU?$char_traits@D@std@@V?$allocator@D@2@@std@@V?$allocator@V?$basic_string@DU?$char_traits@D@std@@V?$allocator@D@2@@std@@@2@@2@@std@@@2@@2@@std@@@2@@7@@Z
  ?PermissionDeniedError@lts_20250512@absl@@YA?AVStatus@12@V?$basic_string_view@DU?$char_traits@D@std@@@std@@@Z
  ?PredictCosts@AnalyticalCostEstimator@grappler@machina@@UEBA?AVStatus@lts_20250512@absl@@AEBVGraphDef@3@PEAVRunMetadata@3@PEAUCosts@23@@Z
  ?PredictCosts@MeasuringCostEstimator@grappler@machina@@UEBA?AVStatus@lts_20250512@absl@@AEBVGraphDef@3@PEAVRunMetadata@3@PEAUCosts@23@@Z
  ?PredictCosts@OpLevelCostEstimator@grappler@machina@@UEBA?AUCosts@23@AEBUOpContext@23@@Z
  ?PrepareInsertNonSoo@container_internal@lts_20250512@absl@@YA_KAEAVCommonFields@123@AEBUPolicyFunctions@123@_KUFindInfo@123@@Z
  ?PrepareToModify@Status@lts_20250512@absl@@CAPEAVStatusRep@status_internal@23@_K@Z
  ?PrintModelAnalysis@tfprof@machina@@YA?AV?$basic_string@DU?$char_traits@D@std@@V?$allocator@D@2@@std@@PEBV34@0000@Z
  ?PrintResult@MetaOptimizer@grappler@machina@@QEAAXXZ
  ?PrintStepStats@StatSummarizer@machina@@QEBAXXZ
  ?Printf@strings@tsl@@YA?AV?$basic_string@DU?$char_traits@D@std@@V?$allocator@D@2@@std@@PEBDZZ
  ?ProcessStepStats@StatSummarizer@machina@@QEAAXAEBVStepStats@2@@Z
  ?Profile@tfprof@machina@@YA?AV?$basic_string@DU?$char_traits@D@std@@V?$allocator@D@2@@std@@PEBV34@0@Z
  ?ProfilerFromFile@tfprof@machina@@YAXPEBV?$basic_string@DU?$char_traits@D@std@@V?$allocator@D@2@@std@@@Z
  ?PyBytesAsStringView@pybind11_protobuf@@YA?AV?$basic_string_view@DU?$char_traits@D@std@@@std@@Vbytes@pybind11@@@Z
  ?PyProtoGetCppMessagePointer@pybind11_protobuf@@YAPEBVMessage@protobuf@google@@Vhandle@pybind11@@@Z
  ?PyProtoHasMatchingFullName@pybind11_protobuf@@YA_NVhandle@pybind11@@PEBVDescriptor@protobuf@google@@@Z
  ?PyProtoSerializePartialToString@pybind11_protobuf@@YA?AVbytes@pybind11@@Vhandle@3@_N@Z
  ?PywrapExpandPresets@pywrap@quantization@stablehlo@@YA?AVQuantizationConfig@23@AEBV423@@Z
  ?PywrapPopulateDefaults@pywrap@quantization@stablehlo@@YA?AVQuantizationConfig@23@AEBV423@@Z
  ?PywrapQuantizeStaticRangePtq@pywrap@quantization@stablehlo@@YA?AVStatus@lts_20250512@absl@@V?$basic_string_view@DU?$char_traits@D@std@@@std@@0AEBVQuantizationConfig@23@AEBV?$vector@V?$basic_string@DU?$char_traits@D@std@@V?$allocator@D@2@@std@@V?$allocator@V?$basic_string@DU?$char_traits@D@std@@V?$allocator@D@2@@std@@@2@@8@AEBV?$flat_hash_map@V?$basic_string@DU?$char_traits@D@std@@V?$allocator@D@2@@std@@VSignatureDef@machina@@UStringHash@container_internal@lts_20250512@absl@@UStringEq@678@V?$allocator@U?$pair@$$CBV?$basic_string@DU?$char_traits@D@std@@V?$allocator@D@2@@std@@VSignatureDef@machina@@@std@@@2@@56@AEBVPyFunctionLibrary@2machina@@@Z
  ?PywrapQuantizeWeightOnlyPtq@pywrap@quantization@stablehlo@@YA?AVStatus@lts_20250512@absl@@V?$basic_string_view@DU?$char_traits@D@std@@@std@@0AEBVQuantizationConfig@23@AEBV?$vector@V?$basic_string@DU?$char_traits@D@std@@V?$allocator@D@2@@std@@V?$allocator@V?$basic_string@DU?$char_traits@D@std@@V?$allocator@D@2@@std@@@2@@8@AEBV?$flat_hash_map@V?$basic_string@DU?$char_traits@D@std@@V?$allocator@D@2@@std@@VSignatureDef@machina@@UStringHash@container_internal@lts_20250512@absl@@UStringEq@678@V?$allocator@U?$pair@$$CBV?$basic_string@DU?$char_traits@D@std@@V?$allocator@D@2@@std@@VSignatureDef@machina@@@std@@@2@@56@AEBVPyFunctionLibrary@2machina@@@Z
  ?PywrapSavedModelToStablehlo@pywrap@machina_to_stablehlo@mlir@@YA?AV?$StatusOr@V?$basic_string@DU?$char_traits@D@std@@V?$allocator@D@2@@std@@@lts_20250512@absl@@V?$basic_string_view@DU?$char_traits@D@std@@@std@@AEBV?$vector@V?$basic_string@DU?$char_traits@D@std@@V?$allocator@D@2@@std@@V?$allocator@V?$basic_string@DU?$char_traits@D@std@@V?$allocator@D@2@@std@@@2@@8@10@Z
  ?PywrapTfModuleToStablehlo@pywrap@machina_to_stablehlo@mlir@@YA?AV?$StatusOr@V?$basic_string@DU?$char_traits@D@std@@V?$allocator@D@2@@std@@@lts_20250512@absl@@V?$basic_string_view@DU?$char_traits@D@std@@@std@@0@Z
  ?QuantizeDynamicRangePtq@quantization@machina@@YA?AV?$StatusOr@VExportedModel@quantization@machina@@@lts_20250512@absl@@V?$basic_string_view@DU?$char_traits@D@std@@@std@@AEBV?$vector@V?$basic_string@DU?$char_traits@D@std@@V?$allocator@D@2@@std@@V?$allocator@V?$basic_string@DU?$char_traits@D@std@@V?$allocator@D@2@@std@@@2@@7@AEBV?$unordered_set@V?$basic_string@DU?$char_traits@D@std@@V?$allocator@D@2@@std@@U?$hash@V?$basic_string@DU?$char_traits@D@std@@V?$allocator@D@2@@std@@@2@U?$equal_to@V?$basic_string@DU?$char_traits@D@std@@V?$allocator@D@2@@std@@@2@V?$allocator@V?$basic_string@DU?$char_traits@D@std@@V?$allocator@D@2@@std@@@2@@7@AEBVQuantizationOptions@12@@Z
  ?QuantizeQatModel@quantization@machina@@YA?AV?$StatusOr@VExportedModel@quantization@machina@@@lts_20250512@absl@@V?$basic_string_view@DU?$char_traits@D@std@@@std@@AEBV?$vector@V?$basic_string@DU?$char_traits@D@std@@V?$allocator@D@2@@std@@V?$allocator@V?$basic_string@DU?$char_traits@D@std@@V?$allocator@D@2@@std@@@2@@7@AEBV?$unordered_set@V?$basic_string@DU?$char_traits@D@std@@V?$allocator@D@2@@std@@U?$hash@V?$basic_string@DU?$char_traits@D@std@@V?$allocator@D@2@@std@@@2@U?$equal_to@V?$basic_string@DU?$char_traits@D@std@@V?$allocator@D@2@@std@@@2@V?$allocator@V?$basic_string@DU?$char_traits@D@std@@V?$allocator@D@2@@std@@@2@@7@AEBVQuantizationOptions@12@@Z
  ?QuantizeStaticRangePtq@quantization@machina@@YA?AV?$StatusOr@VExportedModel@quantization@machina@@@lts_20250512@absl@@V?$basic_string_view@DU?$char_traits@D@std@@@std@@AEBV?$vector@V?$basic_string@DU?$char_traits@D@std@@V?$allocator@D@2@@std@@V?$allocator@V?$basic_string@DU?$char_traits@D@std@@V?$allocator@D@2@@std@@@2@@7@AEBV?$unordered_set@V?$basic_string@DU?$char_traits@D@std@@V?$allocator@D@2@@std@@U?$hash@V?$basic_string@DU?$char_traits@D@std@@V?$allocator@D@2@@std@@@2@U?$equal_to@V?$basic_string@DU?$char_traits@D@std@@V?$allocator@D@2@@std@@@2@V?$allocator@V?$basic_string@DU?$char_traits@D@std@@V?$allocator@D@2@@std@@@2@@7@AEBVQuantizationOptions@12@AEBV?$flat_hash_map@V?$basic_string@DU?$char_traits@D@std@@V?$allocator@D@2@@std@@VSignatureDef@machina@@UStringHash@container_internal@lts_20250512@absl@@UStringEq@678@V?$allocator@U?$pair@$$CBV?$basic_string@DU?$char_traits@D@std@@V?$allocator@D@2@@std@@VSignatureDef@machina@@@std@@@2@@45@AEBVPyFunctionLibrary@12@AEBV?$flat_hash_map@V?$basic_string@DU?$char_traits@D@std@@V?$allocator@D@2@@std@@VRepresentativeDatasetFile@quantization@machina@@UStringHash@container_internal@lts_20250512@absl@@UStringEq@789@V?$allocator@U?$pair@$$CBV?$basic_string@DU?$char_traits@D@std@@V?$allocator@D@2@@std@@VRepresentativeDatasetFile@quantization@machina@@@std@@@2@@45@@Z
  ?QuantizeWeightOnly@quantization@machina@@YA?AV?$StatusOr@VExportedModel@quantization@machina@@@lts_20250512@absl@@V?$basic_string_view@DU?$char_traits@D@std@@@std@@AEBVQuantizationOptions@12@@Z
  ?ReadFileToString@tsl@@YA?AVStatus@lts_20250512@absl@@PEAVEnv@1@AEBV?$basic_string@DU?$char_traits@D@std@@V?$allocator@D@2@@std@@PEAV67@@Z
  ?ReadLineAsString@BufferedInputStream@io@tsl@@QEAA?AV?$basic_string@DU?$char_traits@D@std@@V?$allocator@D@2@@std@@XZ
  ?ReadRecord@RecordReader@io@tsl@@QEAA?AVStatus@lts_20250512@absl@@PEA_KPEAVtstring@3@@Z
  ?ReadSavedModelFingerprint@fingerprinting@saved_model@machina@@YA?AV?$StatusOr@VFingerprintDef@machina@@@lts_20250512@absl@@V?$basic_string_view@DU?$char_traits@D@std@@@std@@@Z
  ?Record@TraceMeRecorder@profiler@tsl@@SAX$$QEAUEvent@123@@Z
  ?RecordMutation@machina@@YAXPEAUTF_Graph@@AEBUTF_Operation@@PEBD@Z
  ?RecursivelyCreateDir@Env@tsl@@QEAA?AVStatus@lts_20250512@absl@@AEBV?$basic_string@DU?$char_traits@D@std@@V?$allocator@D@2@@std@@@Z
  ?ReduceScatterShape@shape_inference@machina@@YA?AVStatus@lts_20250512@absl@@PEAVInferenceContext@12@@Z
  ?Register@GradientRegistry@gradients@machina@@QEAA?AVStatus@lts_20250512@absl@@AEBV?$basic_string@DU?$char_traits@D@std@@V?$allocator@D@2@@std@@V?$function@$$A6APEAVGradientFunction@gradients@machina@@AEBUForwardOperation@23@@Z@8@@Z
  ?Register@PythonAPIDispatcher@py_dispatch@machina@@QEAAXVPySignatureChecker@23@PEAU_object@@@Z
  ?RegisterCustomOpdefs@tflite@@YAPEAU_object@@PEAU2@@Z
  ?RegisterDeviceAndGetId@DebugEventsWriter@tfdbg@machina@@QEAAHAEBV?$basic_string@DU?$char_traits@D@std@@V?$allocator@D@2@@std@@@Z
  ?RegisterDispatchableType@py_dispatch@machina@@YA_NPEAU_object@@@Z
  ?RegisterPyObject@swig@machina@@YAPEAU_object@@PEAU3@0@Z
  ?Relu@ops@machina@@YA?AVStatus@lts_20250512@absl@@PEAVAbstractContext@2@QEAVAbstractTensorHandle@2@PEAPEAV72@PEBD3@Z
  ?ReluRegisterer@gradients@machina@@YAPEAVGradientFunction@12@AEBUForwardOperation@12@@Z
  ?RemoveControlEdge@Graph@machina@@QEAAXPEBVEdge@2@@Z
  ?RemoveNonDeprecationDescriptionsFromOpDef@machina@@YAXPEAVOpDef@1@@Z
  ?RenameFile@Env@tsl@@QEAA?AVStatus@lts_20250512@absl@@AEBV?$basic_string@DU?$char_traits@D@std@@V?$allocator@D@2@@std@@0@Z
  ?ReplicatedOnMesh@Layout@dtensor@machina@@SA?AV123@AEBVMesh@23@H@Z
  ?ReserveEmptyNonAllocatedTableToFitBucketCount@container_internal@lts_20250512@absl@@YAXAEAVCommonFields@123@AEBUPolicyFunctions@123@_K@Z
  ?ReserveTableToFitNewSize@container_internal@lts_20250512@absl@@YAXAEAVCommonFields@123@AEBUPolicyFunctions@123@_K@Z
  ?ResetJitCompilerFlags@machina@@YAXXZ
  ?RetrieveCollectedErrors@tflite@@YA?AV?$vector@V?$basic_string@DU?$char_traits@D@std@@V?$allocator@D@2@@std@@V?$allocator@V?$basic_string@DU?$char_traits@D@std@@V?$allocator@D@2@@std@@@2@@std@@XZ
  ?Retry@grpc_util@data@machina@@YA?AVStatus@lts_20250512@absl@@AEBV?$function@$$A6A?AVStatus@lts_20250512@absl@@XZ@std@@AEBV?$basic_string@DU?$char_traits@D@std@@V?$allocator@D@2@@8@_J@Z
  ?SameNamedtuples@swig@machina@@YAPEAU_object@@PEAU3@0@Z
  ?SavedModelFoundFingerprintOnLoad@metrics@machina@@YAAEAV?$GaugeCell@V?$basic_string@DU?$char_traits@D@std@@V?$allocator@D@2@@std@@@monitoring@tsl@@XZ
  ?SavedModelReadApi@metrics@machina@@YAAEAVCounterCell@monitoring@tsl@@V?$basic_string_view@DU?$char_traits@D@std@@@std@@@Z
  ?SavedModelReadCount@metrics@machina@@YAAEAVCounterCell@monitoring@tsl@@V?$basic_string_view@DU?$char_traits@D@std@@@std@@@Z
  ?SavedModelReadFingerprint@metrics@machina@@YAAEAV?$GaugeCell@V?$basic_string@DU?$char_traits@D@std@@V?$allocator@D@2@@std@@@monitoring@tsl@@XZ
  ?SavedModelReadPath@metrics@machina@@YAAEAV?$GaugeCell@V?$basic_string@DU?$char_traits@D@std@@V?$allocator@D@2@@std@@@monitoring@tsl@@XZ
  ?SavedModelReadPathAndSingleprint@metrics@machina@@YAAEAV?$GaugeCell@V?$basic_string@DU?$char_traits@D@std@@V?$allocator@D@2@@std@@@monitoring@tsl@@XZ
  ?SavedModelWriteApi@metrics@machina@@YAAEAVCounterCell@monitoring@tsl@@V?$basic_string_view@DU?$char_traits@D@std@@@std@@@Z
  ?SavedModelWriteCount@metrics@machina@@YAAEAVCounterCell@monitoring@tsl@@V?$basic_string_view@DU?$char_traits@D@std@@@std@@@Z
  ?SavedModelWriteFingerprint@metrics@machina@@YAAEAV?$GaugeCell@V?$basic_string@DU?$char_traits@D@std@@V?$allocator@D@2@@std@@@monitoring@tsl@@XZ
  ?SavedModelWritePath@metrics@machina@@YAAEAV?$GaugeCell@V?$basic_string@DU?$char_traits@D@std@@V?$allocator@D@2@@std@@@monitoring@tsl@@XZ
  ?SavedModelWritePathAndSingleprint@metrics@machina@@YAAEAV?$GaugeCell@V?$basic_string@DU?$char_traits@D@std@@V?$allocator@D@2@@std@@@monitoring@tsl@@XZ
  ?Scalar@InferenceContext@shape_inference@machina@@QEAA?AVShapeHandle@23@XZ
  ?Schedule@ThreadPool@thread@tsl@@QEAAXV?$function@$$A6AXXZ@std@@@Z
  ?Seek@BufferedInputStream@io@tsl@@QEAA?AVStatus@lts_20250512@absl@@_J@Z
  ?SerializeToString@tfprof@machina@@YA?AV?$basic_string@DU?$char_traits@D@std@@V?$allocator@D@2@@std@@XZ
  ?SetAttr@machina@@YAXPEAUTF_Graph@@PEAUTF_Operation@@PEBDPEAUTF_Buffer@@PEAUTSL_Status@@@Z
  ?SetCEagerContext@machina@@YAXPEAVEagerContext@1@@Z
  ?SetDimWithStatus@?$TensorShapeBase@VPartialTensorShape@machina@@@machina@@QEAA?AVStatus@lts_20250512@absl@@H_J@Z
  ?SetFullType@machina@@YAXPEAUTF_Graph@@PEAUTF_Operation@@PEBUTF_Buffer@@@Z
  ?SetHandleShapeAndType@machina@@YAXPEAUTF_Graph@@UTF_Output@@PEBX_KPEAUTSL_Status@@@Z
  ?SetIsStateful@OpDefBuilder@machina@@QEAAAEAV12@XZ
  ?SetIteratorElementLayouts@dtensor@machina@@YAXPEAUTFE_Context@@PEAUTFE_TensorHandle@@AEBV?$vector@V?$basic_string@DU?$char_traits@D@std@@V?$allocator@D@2@@std@@V?$allocator@V?$basic_string@DU?$char_traits@D@std@@V?$allocator@D@2@@std@@@2@@std@@PEAXPEAUTSL_Status@@@Z
  ?SetNumWarmupSteps@Cluster@grappler@machina@@QEAAXH@Z
  ?SetPayload@StatusRep@status_internal@lts_20250512@absl@@QEAAXV?$basic_string_view@DU?$char_traits@D@std@@@std@@VCord@34@@Z
  ?SetShapeFn@OpDefBuilder@machina@@QEAAAEAV12@V?$function@$$A6A?AVStatus@lts_20250512@absl@@PEAVInferenceContext@shape_inference@machina@@@Z@std@@@Z
  ?SetTPUCoreIDs@dtensor@machina@@YAXAEBV?$basic_string@DU?$char_traits@D@std@@V?$allocator@D@2@@std@@AEBV?$vector@HV?$allocator@H@std@@@4@PEAXPEAUTSL_Status@@@Z
  ?SetVisited@?$DfsHloVisitorBase@PEAVHloInstruction@xla@@@xla@@QEAAXAEBVHloInstruction@2@@Z
  ?SetVisited@?$DfsHloVisitorBase@PEBVHloInstruction@xla@@@xla@@QEAAXAEBVHloInstruction@2@@Z
  ?Set_TF_Status_from_Status@tsl@@YAXPEAUTSL_Status@@AEBVStatus@lts_20250512@absl@@@Z
  ?ShardingCallbackDescription@metrics@machina@@YAAEAV?$GaugeCell@V?$basic_string@DU?$char_traits@D@std@@V?$allocator@D@2@@std@@@monitoring@tsl@@XZ
  ?ShardingCallbackDuration@metrics@machina@@YAAEAVCounterCell@monitoring@tsl@@XZ
  ?Signal@CondVar@lts_20250512@absl@@QEAAXXZ
  ?Singleprint@fingerprinting@saved_model@machina@@YA?AV?$StatusOr@V?$basic_string@DU?$char_traits@D@std@@V?$allocator@D@2@@std@@@lts_20250512@absl@@V?$basic_string_view@DU?$char_traits@D@std@@@std@@@Z
  ?Singleprint@fingerprinting@saved_model@machina@@YA?AV?$basic_string@DU?$char_traits@D@std@@V?$allocator@D@2@@std@@AEBVFingerprintDef@3@@Z
  ?Singleprint@fingerprinting@saved_model@machina@@YA?AV?$basic_string@DU?$char_traits@D@std@@V?$allocator@D@2@@std@@_K000@Z
  ?SlowCopyFrom@TensorShapeRep@machina@@AEAAXAEBV12@@Z
  ?SlowIsEnabled3@VLogSite@log_internal@lts_20250512@absl@@AEAA_NH@Z
  ?SnapshotDoneFilePath@data@machina@@YA?AV?$basic_string@DU?$char_traits@D@std@@V?$allocator@D@2@@std@@V?$basic_string_view@DU?$char_traits@D@std@@@4@@Z
  ?SnapshotErrorFilePath@data@machina@@YA?AV?$basic_string@DU?$char_traits@D@std@@V?$allocator@D@2@@std@@V?$basic_string_view@DU?$char_traits@D@std@@@4@@Z
  ?SnapshotMetadataFilePath@data@machina@@YA?AV?$basic_string@DU?$char_traits@D@std@@V?$allocator@D@2@@std@@V?$basic_string_view@DU?$char_traits@D@std@@@4@@Z
  ?SnapshotStreams@DispatchGrpcDataServer@data@machina@@QEAA?AVStatus@lts_20250512@absl@@AEBV?$basic_string@DU?$char_traits@D@std@@V?$allocator@D@2@@std@@PEAV?$vector@USnapshotStreamInfoWrapper@data@machina@@V?$allocator@USnapshotStreamInfoWrapper@data@machina@@@std@@@8@@Z
  ?SnapshotTaskProgresses@WorkerGrpcDataServer@data@machina@@QEAA?AVStatus@lts_20250512@absl@@PEAV?$vector@USnapshotTaskProgressWrapper@data@machina@@V?$allocator@USnapshotTaskProgressWrapper@data@machina@@@std@@@std@@@Z
  ?SparsePack@dtensor@machina@@YAPEAUTFE_TensorHandle@@PEAUTFE_Context@@HPEAPEAU3@11AEBV?$basic_string@DU?$char_traits@D@std@@V?$allocator@D@2@@std@@PEAXPEAUTSL_Status@@@Z
  ?SparseSoftmaxCrossEntropyWithLogits@ops@machina@@YA?AVStatus@lts_20250512@absl@@PEAVAbstractContext@2@QEAVAbstractTensorHandle@2@1PEAPEAV72@2PEBD3@Z
  ?SparseSoftmaxCrossEntropyWithLogitsRegisterer@gradients@machina@@YAPEAVGradientFunction@12@AEBUForwardOperation@12@@Z
  ?Start@GrpcDataServerBase@data@machina@@QEAA?AVStatus@lts_20250512@absl@@XZ
  ?Start@ProfilerSessionWrapper@pywrap@profiler@machina@@QEAA?AVStatus@lts_20250512@absl@@PEBDAEBV?$flat_hash_map@V?$basic_string@DU?$char_traits@D@std@@V?$allocator@D@2@@std@@V?$variant@_NHV?$basic_string@DU?$char_traits@D@std@@V?$allocator@D@2@@std@@@2@UStringHash@container_internal@lts_20250512@absl@@UStringEq@567@V?$allocator@U?$pair@$$CBV?$basic_string@DU?$char_traits@D@std@@V?$allocator@D@2@@std@@V?$variant@_NHV?$basic_string@DU?$char_traits@D@std@@V?$allocator@D@2@@std@@@2@@std@@@2@@67@@Z
  ?StartCancel@CancellationManager@tsl@@QEAAXXZ
  ?StartProfilerServer@ProfilerServer@profiler@tsl@@QEAAXH@Z
  ?Stat@Env@tsl@@QEAA?AVStatus@lts_20250512@absl@@AEBV?$basic_string@DU?$char_traits@D@std@@V?$allocator@D@2@@std@@PEAUFileStatistics@2@@Z
  ?Stop@GrpcDataServerBase@data@machina@@QEAAXXZ
  ?Stop@ProfilerSessionWrapper@pywrap@profiler@machina@@QEAA?AVStatus@lts_20250512@absl@@PEAV?$basic_string@DU?$char_traits@D@std@@V?$allocator@D@2@@std@@@Z
  ?StrAppend@lts_20250512@absl@@YAXPEAV?$basic_string@DU?$char_traits@D@std@@V?$allocator@D@2@@std@@AEBVAlphaNum@12@111@Z
  ?StrAppend@lts_20250512@absl@@YAXPEAV?$basic_string@DU?$char_traits@D@std@@V?$allocator@D@2@@std@@AEBVAlphaNum@12@11@Z
  ?StrAppend@lts_20250512@absl@@YAXPEAV?$basic_string@DU?$char_traits@D@std@@V?$allocator@D@2@@std@@AEBVAlphaNum@12@@Z
  ?StrCat@lts_20250512@absl@@YA?AV?$basic_string@DU?$char_traits@D@std@@V?$allocator@D@2@@std@@AEBVAlphaNum@12@000@Z
  ?StrCat@lts_20250512@absl@@YA?AV?$basic_string@DU?$char_traits@D@std@@V?$allocator@D@2@@std@@AEBVAlphaNum@12@00@Z
  ?StrCat@lts_20250512@absl@@YA?AV?$basic_string@DU?$char_traits@D@std@@V?$allocator@D@2@@std@@AEBVAlphaNum@12@0@Z
  ?StrCat@strings@tsl@@YA?AV?$basic_string@DU?$char_traits@D@std@@V?$allocator@D@2@@std@@AEBVAlphaNum@12@000@Z
  ?StrCat@strings@tsl@@YA?AV?$basic_string@DU?$char_traits@D@std@@V?$allocator@D@2@@std@@AEBVAlphaNum@12@00@Z
  ?StrCat@strings@tsl@@YA?AV?$basic_string@DU?$char_traits@D@std@@V?$allocator@D@2@@std@@AEBVAlphaNum@12@0@Z
  ?StrCat@strings@tsl@@YA?AV?$basic_string@DU?$char_traits@D@std@@V?$allocator@D@2@@std@@AEBVAlphaNum@12@@Z
  ?StripDefaultAttributes@machina@@YAXAEBVOpRegistryInterface@1@PEAV?$RepeatedPtrField@VNodeDef@machina@@@protobuf@google@@@Z
  ?Sub@ops@machina@@YA?AVStatus@lts_20250512@absl@@PEAVAbstractContext@2@QEAVAbstractTensorHandle@2@1PEAPEAV72@PEBD3@Z
  ?SubRegisterer@gradients@machina@@YAPEAVGradientFunction@12@AEBUForwardOperation@12@@Z
  ?Subtract@InferenceContext@shape_inference@machina@@QEAA?AVStatus@lts_20250512@absl@@VDimensionHandle@23@UDimensionOrConstant@23@PEAV723@@Z
  ?TFE_DeleteContextCapsule@@YAXPEAU_object@@@Z
  ?TFE_GetPythonString@@YAPEBDPEAU_object@@@Z
  ?TFE_Py_EnableInteractivePythonLogging@@YAXXZ
  ?TFE_Py_ExecuteCancelable@@YAXPEAUTFE_Context@@PEBD1PEAV?$InlinedVector@PEAUTFE_TensorHandle@@$03V?$allocator@PEAUTFE_TensorHandle@@@std@@@lts_20250512@absl@@PEAU_object@@PEAUTFE_CancellationManager@@PEAV?$InlinedVector@PEAUTFE_TensorHandle@@$01V?$allocator@PEAUTFE_TensorHandle@@@std@@@34@PEAUTSL_Status@@@Z
  ?TFE_Py_FastPathExecute_C@@YAPEAU_object@@PEAU1@@Z
  ?TFE_Py_ForwardAccumulatorJVP@@YAPEAU_object@@PEAU1@0@Z
  ?TFE_Py_ForwardAccumulatorNew@@YAPEAU_object@@_N@Z
  ?TFE_Py_ForwardAccumulatorPopState@@YAPEAU_object@@XZ
  ?TFE_Py_ForwardAccumulatorPushState@@YAPEAU_object@@XZ
  ?TFE_Py_ForwardAccumulatorSetAdd@@YAPEAU_object@@PEAU1@@Z
  ?TFE_Py_ForwardAccumulatorSetRemove@@YAXPEAU_object@@@Z
  ?TFE_Py_ForwardAccumulatorWatch@@YAXPEAU_object@@00@Z
  ?TFE_Py_InitEagerTensor@@YAPEAU_object@@PEAU1@@Z
  ?TFE_Py_PackJVPs@@YAPEAU_object@@PEAU1@@Z
  ?TFE_Py_RecordGradient@@YAPEAU_object@@PEAU1@0000@Z
  ?TFE_Py_RegisterExceptionClass@@YAPEAU_object@@PEAU1@@Z
  ?TFE_Py_RegisterFallbackExceptionClass@@YAPEAU_object@@PEAU1@@Z
  ?TFE_Py_RegisterGradientFunction@@YAPEAU_object@@PEAU1@@Z
  ?TFE_Py_RegisterJVPFunction@@YAPEAU_object@@PEAU1@@Z
  ?TFE_Py_RegisterVSpace@@YAPEAU_object@@PEAU1@@Z
  ?TFE_Py_SetEagerContext@@YAPEAU_object@@PEAU1@@Z
  ?TFE_Py_SetEagerTensorProfiler@@YAPEAU_object@@PEAU1@@Z
  ?TFE_Py_TapeGradient@@YAPEAU_object@@PEAU1@00000PEAUTSL_Status@@@Z
  ?TFE_Py_TapeSetAdd@@YAXPEAU_object@@@Z
  ?TFE_Py_TapeSetDeleteTrace@@YAX_J@Z
  ?TFE_Py_TapeSetIsEmpty@@YAPEAU_object@@XZ
  ?TFE_Py_TapeSetIsStopped@@YAPEAU_object@@XZ
  ?TFE_Py_TapeSetNew@@YAPEAU_object@@PEAU1@0@Z
  ?TFE_Py_TapeSetPossibleGradientTypes@@YAPEAU_object@@PEAU1@@Z
  ?TFE_Py_TapeSetRecordOperation@@YAPEAU_object@@PEAU1@0000@Z
  ?TFE_Py_TapeSetRecordOperationBackprop@@YAPEAU_object@@PEAU1@000@Z
  ?TFE_Py_TapeSetRecordOperationForwardprop@@YAPEAU_object@@PEAU1@0000@Z
  ?TFE_Py_TapeSetRemove@@YAXPEAU_object@@@Z
  ?TFE_Py_TapeSetRestartOnThread@@YAXXZ
  ?TFE_Py_TapeSetShouldRecordBackprop@@YAPEAU_object@@PEAU1@@Z
  ?TFE_Py_TapeSetStopOnThread@@YAXXZ
  ?TFE_Py_TapeVariableAccessed@@YAXPEAU_object@@@Z
  ?TFE_Py_TapeWatch@@YAXPEAU_object@@0@Z
  ?TFE_Py_TapeWatchVariable@@YAXPEAU_object@@0@Z
  ?TFE_Py_TapeWatchedVariables@@YAPEAU_object@@PEAU1@@Z
  ?TFE_Py_TensorShapeOnDevice@@YAPEAU_object@@PEAU1@@Z
  ?TFE_Py_TensorShapeSlice@@YAPEAU_object@@PEAU1@H@Z
  ?TFE_Py_UID@@YAPEAU_object@@XZ
  ?TFE_Py_VariableWatcherNew@@YAPEAU_object@@XZ
  ?TFE_Py_VariableWatcherRemove@@YAXPEAU_object@@@Z
  ?TFE_Py_VariableWatcherVariableAccessed@@YAXPEAU_object@@@Z
  ?TFE_Py_VariableWatcherWatchedVariables@@YAPEAU_object@@PEAU1@@Z
  ?TFE_TensorHandleToNumpy@machina@@YAPEAU_object@@PEAUTFE_TensorHandle@@PEAUTSL_Status@@@Z
  ?TF_CreatePlaceholders@machina@@YA?AV?$vector@UTF_Output@@V?$allocator@UTF_Output@@@std@@@std@@PEAUTF_Graph@@PEAU_object@@PEBDPEAUTSL_Status@@@Z
  ?TF_GraphGetTensorShapeHelper@machina@@YA?AV?$InlinedVector@_J$05V?$allocator@_J@std@@@lts_20250512@absl@@PEAUTF_Graph@@UTF_Output@@PEAUTSL_Status@@PEA_N@Z
  ?TF_GraphSetOutputHandleShapesAndTypes_wrapper@machina@@YAXPEAUTF_Graph@@UTF_Output@@AEBV?$vector@V?$vector@_JV?$allocator@_J@std@@@std@@V?$allocator@V?$vector@_JV?$allocator@_J@std@@@std@@@2@@std@@AEBV?$vector@HV?$allocator@H@std@@@5@AEBV?$vector@W4TF_DataType@@V?$allocator@W4TF_DataType@@@std@@@5@PEAUTSL_Status@@@Z
  ?TF_GraphSetTensorShape_wrapper@machina@@YAXPEAUTF_Graph@@UTF_Output@@AEBV?$vector@_JV?$allocator@_J@std@@@std@@_NPEAUTSL_Status@@@Z
  ?TF_GraphToFunction_wrapper@machina@@YAPEAUTF_Function@@PEBUTF_Graph@@PEBD_NPEBV?$vector@PEAUTF_Operation@@V?$allocator@PEAUTF_Operation@@@std@@@std@@AEBV?$vector@UTF_Output@@V?$allocator@UTF_Output@@@std@@@5@4AEBV?$InlinedVector@PEBD$07V?$allocator@PEBD@std@@@lts_20250512@absl@@35PEBUTF_FunctionOptions@@1PEAUTSL_Status@@@Z
  ?TF_ImportGraphDefResultsMissingUnusedInputMappings_wrapper@machina@@YA?AV?$vector@V?$basic_string@DU?$char_traits@D@std@@V?$allocator@D@2@@std@@V?$allocator@V?$basic_string@DU?$char_traits@D@std@@V?$allocator@D@2@@std@@@2@@std@@PEAUTF_ImportGraphDefResults@@@Z
  ?TF_NewSessionRef@machina@@YAPEAUTF_Session@@PEAUTF_Graph@@PEBUTF_SessionOptions@@PEAUTSL_Status@@@Z
  ?TF_OperationGetControlOutputs_wrapper@machina@@YA?AV?$vector@PEAUTF_Operation@@V?$allocator@PEAUTF_Operation@@@std@@@std@@PEAUTF_Operation@@@Z
  ?TF_Reset_wrapper@machina@@YAXPEBUTF_SessionOptions@@AEBV?$InlinedVector@PEBD$07V?$allocator@PEBD@std@@@lts_20250512@absl@@PEAUTSL_Status@@@Z
  ?TF_SessionMakeCallable@machina@@YAXPEAUTF_Session@@PEBUTF_Buffer@@PEA_JPEAUTSL_Status@@@Z
  ?TF_SessionPRunSetup_wrapper@machina@@YAXPEAUTF_Session@@AEBV?$vector@UTF_Output@@V?$allocator@UTF_Output@@@std@@@std@@1AEBV?$vector@PEAUTF_Operation@@V?$allocator@PEAUTF_Operation@@@std@@@4@PEAPEBDPEAUTSL_Status@@@Z
  ?TF_SessionPRun_wrapper@machina@@YAXPEAUTF_Session@@PEBDAEBV?$vector@UTF_Output@@V?$allocator@UTF_Output@@@std@@@std@@AEBV?$vector@PEAU_object@@V?$allocator@PEAU_object@@@std@@@4@2PEAUTSL_Status@@PEAV54@@Z
  ?TF_SessionReleaseCallable@machina@@YAXPEAUTF_Session@@_JPEAUTSL_Status@@@Z
  ?TF_SessionRunCallable@machina@@YAXPEAUTF_Session@@_JPEAU_object@@PEAV?$InlinedVector@PEAU_object@@$07V?$allocator@PEAU_object@@@std@@@lts_20250512@absl@@PEAUTF_Buffer@@PEAUTSL_Status@@@Z
  ?TF_SessionRun_wrapper@machina@@YAXPEAUTF_Session@@PEBUTF_Buffer@@AEBV?$vector@UTF_Output@@V?$allocator@UTF_Output@@@std@@@std@@AEBV?$vector@PEAU_object@@V?$allocator@PEAU_object@@@std@@@5@2AEBV?$vector@PEAUTF_Operation@@V?$allocator@PEAUTF_Operation@@@std@@@5@PEAU3@PEAUTSL_Status@@PEAV65@@Z
  ?TF_TryEvaluateConstant_wrapper@machina@@YAPEAU_object@@PEAUTF_Graph@@UTF_Output@@PEAUTSL_Status@@@Z
  ?TPUCoreIDsToLocations@dtensor@machina@@YA?AV?$vector@V?$vector@HV?$allocator@H@std@@@std@@V?$allocator@V?$vector@HV?$allocator@H@std@@@std@@@2@@std@@PEAUTFE_Context@@AEBV?$vector@HV?$allocator@H@std@@@4@PEAX@Z
  ?TPUCoreLocationsToIDs@dtensor@machina@@YA?AV?$vector@HV?$allocator@H@std@@@std@@PEAUTFE_Context@@AEBV?$vector@V?$vector@HV?$allocator@H@std@@@std@@V?$allocator@V?$vector@HV?$allocator@H@std@@@std@@@2@@4@PEAX@Z
  ?TensorToNdarray@machina@@YA?AVStatus@lts_20250512@absl@@AEBVTensor@1@PEAPEAU_object@@@Z
  ?TestCounter@metrics@machina@@YAPEBVCounterCell@monitoring@tsl@@AEBV?$basic_string@DU?$char_traits@D@std@@V?$allocator@D@2@@std@@0@Z
  ?TfCheckOpHelperOutOfLine@tsl@@YAPEAV?$basic_string@DU?$char_traits@D@std@@V?$allocator@D@2@@std@@AEBVStatus@lts_20250512@absl@@PEBD@Z
  ?ThrowBadStatusOrAccess@internal_statusor@lts_20250512@absl@@YAXVStatus@23@@Z
  ?ThrowStdOutOfRange@base_internal@lts_20250512@absl@@YAXPEBD@Z
  ?ToDeviceType@Mesh@dtensor@machina@@QEBA?AV?$StatusOr@VMesh@dtensor@machina@@@lts_20250512@absl@@AEBV?$basic_string@DU?$char_traits@D@std@@V?$allocator@D@2@@std@@@Z
  ?ToFrames@FrozenStackTrace@machina@@UEBA?AV?$Span@$$CBUStackFrame@tsl@@@lts_20250512@absl@@XZ
  ?ToGraphDebugInfoStr@GraphDebugInfoBuilder@machina@@QEBA?AV?$basic_string@DU?$char_traits@D@std@@V?$allocator@D@2@@std@@XZ
  ?ToGraphDef@Graph@machina@@QEBAXPEAVGraphDef@2@_N1@Z
  ?ToProto@Layout@dtensor@machina@@QEBA?AV?$StatusOr@VLayoutProto@dtensor@machina@@@lts_20250512@absl@@XZ
  ?ToProto@Mesh@dtensor@machina@@QEBA?AV?$StatusOr@VMeshProto@dtensor@machina@@@lts_20250512@absl@@XZ
  ?ToString@FrozenStackTrace@machina@@UEBA?AV?$basic_string@DU?$char_traits@D@std@@V?$allocator@D@2@@std@@AEBUTracePrintingOptions@AbstractStackTrace@2@@Z
  ?ToString@HloInstruction@xla@@QEBA?AV?$basic_string@DU?$char_traits@D@std@@V?$allocator@D@2@@std@@XZ
  ?ToString@Layout@dtensor@machina@@QEBA?AV?$basic_string@DU?$char_traits@D@std@@V?$allocator@D@2@@std@@XZ
  ?ToString@Mesh@dtensor@machina@@QEBA?AV?$basic_string@DU?$char_traits@D@std@@V?$allocator@D@2@@std@@XZ
  ?ToStringSlow@Status@lts_20250512@absl@@CA?AV?$basic_string@DU?$char_traits@D@std@@V?$allocator@D@2@@std@@_KW4StatusToStringMode@23@@Z
  ?ToUncachedFrames@FrozenStackTrace@machina@@UEBA?AV?$vector@UStackFrame@tsl@@V?$allocator@UStackFrame@tsl@@@std@@@std@@XZ
  ?TocoConvert@toco@@YAPEAU_object@@PEAU2@00_N@Z
  ?TopologicalSort@grappler@machina@@YA?AVStatus@lts_20250512@absl@@PEAVGraphDef@2@@Z
  ?TraceString@OpKernel@machina@@UEBA?AV?$basic_string@DU?$char_traits@D@std@@V?$allocator@D@2@@std@@AEBVOpKernelContext@2@_N@Z
  ?TrainingTimeSaved@metrics@machina@@YAAEAVCounterCell@monitoring@tsl@@V?$basic_string_view@DU?$char_traits@D@std@@@std@@@Z
  ?TransformGraph@graph_transforms@machina@@YA?AVStatus@lts_20250512@absl@@AEBV?$vector@V?$basic_string@DU?$char_traits@D@std@@V?$allocator@D@2@@std@@V?$allocator@V?$basic_string@DU?$char_traits@D@std@@V?$allocator@D@2@@std@@@2@@std@@0AEBV?$vector@U?$pair@V?$basic_string@DU?$char_traits@D@std@@V?$allocator@D@2@@std@@V?$map@V?$basic_string@DU?$char_traits@D@std@@V?$allocator@D@2@@std@@V?$vector@V?$basic_string@DU?$char_traits@D@std@@V?$allocator@D@2@@std@@V?$allocator@V?$basic_string@DU?$char_traits@D@std@@V?$allocator@D@2@@std@@@2@@2@U?$less@V?$basic_string@DU?$char_traits@D@std@@V?$allocator@D@2@@std@@@2@V?$allocator@U?$pair@$$CBV?$basic_string@DU?$char_traits@D@std@@V?$allocator@D@2@@std@@V?$vector@V?$basic_string@DU?$char_traits@D@std@@V?$allocator@D@2@@std@@V?$allocator@V?$basic_string@DU?$char_traits@D@std@@V?$allocator@D@2@@std@@@2@@2@@std@@@2@@2@@std@@V?$allocator@U?$pair@V?$basic_string@DU?$char_traits@D@std@@V?$allocator@D@2@@std@@V?$map@V?$basic_string@DU?$char_traits@D@std@@V?$allocator@D@2@@std@@V?$vector@V?$basic_string@DU?$char_traits@D@std@@V?$allocator@D@2@@std@@V?$allocator@V?$basic_string@DU?$char_traits@D@std@@V?$allocator@D@2@@std@@@2@@2@U?$less@V?$basic_string@DU?$char_traits@D@std@@V?$allocator@D@2@@std@@@2@V?$allocator@U?$pair@$$CBV?$basic_string@DU?$char_traits@D@std@@V?$allocator@D@2@@std@@V?$vector@V?$basic_string@DU?$char_traits@D@std@@V?$allocator@D@2@@std@@V?$allocator@V?$basic_string@DU?$char_traits@D@std@@V?$allocator@D@2@@std@@@2@@2@@std@@@2@@2@@std@@@2@@7@PEAVGraphDef@2@@Z
  ?TreatAsSet@MessageDifferencer@util@protobuf@google@@QEAAXPEBVFieldDescriptor@34@@Z
  ?TryFindKernelClass@swig@machina@@YA?AV?$basic_string@DU?$char_traits@D@std@@V?$allocator@D@2@@std@@AEBV34@@Z
  ?TypeConstraint@KernelDefBuilder@machina@@QEAAAEAV12@PEBDW4DataType@2@@Z
  ?UnchangedShape@shape_inference@machina@@YA?AVStatus@lts_20250512@absl@@PEAVInferenceContext@12@@Z
  ?UnimplementedError@lts_20250512@absl@@YA?AVStatus@12@V?$basic_string_view@DU?$char_traits@D@std@@@std@@@Z
  ?UnknownShape@InferenceContext@shape_inference@machina@@QEAA?AVShapeHandle@23@XZ
  ?UnknownShape@shape_inference@machina@@YA?AVStatus@lts_20250512@absl@@PEAVInferenceContext@12@@Z
  ?UnknownShapeOfRank@InferenceContext@shape_inference@machina@@QEAA?AVShapeHandle@23@_J@Z
  ?Unlock@Mutex@lts_20250512@absl@@QEAAXXZ
  ?Unpack@dtensor@machina@@YA?AV?$vector@PEAUTFE_TensorHandle@@V?$allocator@PEAUTFE_TensorHandle@@@std@@@std@@PEAUTFE_Context@@PEAUTFE_TensorHandle@@PEAXPEAUTSL_Status@@@Z
  ?Unref@StatusRep@status_internal@lts_20250512@absl@@QEBAXXZ
  ?Unregister@CollectionRegistry@monitoring@tsl@@AEAAXPEBVAbstractMetricDef@23@@Z
  ?Unregister@PythonAPIDispatcher@py_dispatch@machina@@QEAAXPEAU_object@@@Z
  ?UpdateEdge@machina@@YAXPEAUTF_Graph@@UTF_Output@@UTF_Input@@PEAUTSL_Status@@@Z
  ?ValidateType@ResourceHandle@machina@@QEBA?AVStatus@lts_20250512@absl@@AEBVTypeIndex@2@@Z
  ?Vector@InferenceContext@shape_inference@machina@@QEAA?AVShapeHandle@23@UDimensionOrConstant@23@@Z
  ?VmoduleActivated@LogMessage@internal@tsl@@SA_NPEBDH@Z
  ?WaitCommon@CondVar@lts_20250512@absl@@AEAA_NPEAVMutex@23@VKernelTimeout@synchronization_internal@23@@Z
  ?Watch@Tape@gradients@machina@@QEAAXPEBVAbstractTensorHandle@3@@Z
  ?WithRank@InferenceContext@shape_inference@machina@@QEAA?AVStatus@lts_20250512@absl@@VShapeHandle@23@_JPEAV723@@Z
  ?WithVerbosity@LogMessage@log_internal@lts_20250512@absl@@QEAAAEAV1234@H@Z
  ?WriteProfile@tfprof@machina@@YAXPEBV?$basic_string@DU?$char_traits@D@std@@V?$allocator@D@2@@std@@@Z
  ?WriteRecord@RecordWriter@io@tsl@@QEAA?AVStatus@lts_20250512@absl@@V?$basic_string_view@DU?$char_traits@D@std@@@std@@@Z
  ?WriteSerializedEvent@EventsWriter@machina@@QEAAXV?$basic_string_view@DU?$char_traits@D@std@@@std@@@Z
  ?WriteSerializedExecutionDebugEvent@DebugEventsWriter@tfdbg@machina@@QEAAXAEBV?$basic_string@DU?$char_traits@D@std@@V?$allocator@D@2@@std@@W4DebugEventFileType@23@@Z
  ?WriteSerializedNonExecutionDebugEvent@DebugEventsWriter@tfdbg@machina@@QEAAXAEBV?$basic_string@DU?$char_traits@D@std@@V?$allocator@D@2@@std@@W4DebugEventFileType@23@@Z
  ?WriteStringToFile@tsl@@YA?AVStatus@lts_20250512@absl@@PEAVEnv@1@AEBV?$basic_string@DU?$char_traits@D@std@@V?$allocator@D@2@@std@@V?$basic_string_view@DU?$char_traits@D@std@@@7@@Z
  ?_AttrValue_ListValue_default_instance_@machina@@3UAttrValue_ListValueDefaultTypeInternal@1@A
  ?_FunctionDefLibrary_default_instance_@machina@@3UFunctionDefLibraryDefaultTypeInternal@1@A
  ?_FunctionDef_default_instance_@machina@@3UFunctionDefDefaultTypeInternal@1@A
  ?_GraphDef_default_instance_@machina@@3UGraphDefDefaultTypeInternal@1@A
  ?_LayoutProto_default_instance_@dtensor@machina@@3ULayoutProtoDefaultTypeInternal@12@A
  ?_MeshProto_default_instance_@dtensor@machina@@3UMeshProtoDefaultTypeInternal@12@A
  ?_MetaGraphDef_default_instance_@machina@@3UMetaGraphDefDefaultTypeInternal@1@A
  ?add_ret_check_failure@MakeErrorStream@status_macros@xla@@QEAAAEAVMakeErrorStreamWithOutput@123@PEBD@Z
  ?checkInput@FileCheck@toolchain@@QEAA_NAEAVSourceMgr@2@VStringRef@2@PEAV?$vector@UFileCheckDiag@toolchain@@V?$allocator@UFileCheckDiag@toolchain@@@std@@@std@@@Z
  ?clear_value@AttrValue@machina@@QEAAXXZ
  ?cost@PyListChecker@py_dispatch@machina@@UEBAHXZ
  ?cost@PyUnionChecker@py_dispatch@machina@@UEBAHXZ
  ?create@ModuleOp@mlir@@SA?AV12@AEAVOpBuilder@2@VLocation@2@V?$optional@VStringRef@toolchain@@@std@@@Z
  ?deallocate_buffer@toolchain@@YAXPEAX_K1@Z
  ?def@Node@machina@@QEBAAEBVNodeDef@2@XZ
  ?device_location@Mesh@dtensor@machina@@QEBA?AV?$StatusOr@$$CBV?$InlinedVector@_J$03V?$allocator@_J@std@@@lts_20250512@absl@@@lts_20250512@absl@@H@Z
  ?device_type@Mesh@dtensor@machina@@QEBA?AV?$basic_string@DU?$char_traits@D@std@@V?$allocator@D@2@@std@@XZ
  ?dim_size@?$TensorShapeBase@VPartialTensorShape@machina@@@machina@@QEBA_JH@Z
  ?dim_size@?$TensorShapeBase@VTensorShape@machina@@@machina@@QEBA_JH@Z
  ?dim_size@Mesh@dtensor@machina@@QEBA?AV?$StatusOr@_J@lts_20250512@absl@@V?$basic_string_view@DU?$char_traits@D@std@@@std@@@Z
  ?dim_sizes@?$TensorShapeBase@VPartialTensorShape@machina@@@machina@@QEBA?AV?$InlinedVector@_J$03V?$allocator@_J@std@@@lts_20250512@absl@@XZ
  ?dim_sizes@Mesh@dtensor@machina@@QEBA?AV?$vector@_JV?$allocator@_J@std@@@std@@XZ
  ?emitError@OpState@mlir@@QEAA?AVInFlightDiagnostic@2@AEBVTwine@toolchain@@@Z
  ?enable_tensor_float_32_execution@tsl@@YAX_N@Z
  ?erase@Operation@mlir@@QEAAXXZ
  ?fixed_address_empty_string@internal@protobuf@google@@3VGlobalEmptyStringDynamicInit@123@A
  ?getMemBuffer@MemoryBuffer@toolchain@@SA?AV?$unique_ptr@VMemoryBuffer@toolchain@@U?$default_delete@VMemoryBuffer@toolchain@@@std@@@std@@VStringRef@2@0_N@Z
  ?getOrLoadDialect@MLIRContext@mlir@@QEAAPEAVDialect@2@VStringRef@toolchain@@VTypeID@2@V?$function_ref@$$A6A?AV?$unique_ptr@VDialect@mlir@@U?$default_delete@VDialect@mlir@@@std@@@std@@XZ@5@@Z
  ?getValuePtr@?$SpecificNodeAccess@U?$node_options@VOperation@mlir@@$0A@$0A@X$0A@X@ilist_detail@toolchain@@@ilist_detail@toolchain@@KAPEAVOperation@mlir@@PEAV?$ilist_node_impl@U?$node_options@VOperation@mlir@@$0A@$0A@X$0A@X@ilist_detail@toolchain@@@3@@Z
  ?id@?$TypeIDResolver@VArithDialect@arith@mlir@@X@detail@mlir@@0VSelfOwningTypeID@3@A
  ?id@?$TypeIDResolver@VFuncDialect@func@mlir@@X@detail@mlir@@0VSelfOwningTypeID@3@A
  ?id@?$TypeIDResolver@VModuleOp@mlir@@X@detail@mlir@@0VSelfOwningTypeID@3@A
  ?id@?$TypeIDResolver@VSCFDialect@scf@mlir@@X@detail@mlir@@0VSelfOwningTypeID@3@A
  ?id@?$TypeIDResolver@VShapeDialect@shape@mlir@@X@detail@mlir@@0VSelfOwningTypeID@3@A
  ?input@InferenceContext@shape_inference@machina@@QEBA?AVStatus@lts_20250512@absl@@V?$basic_string_view@DU?$char_traits@D@std@@@std@@PEAV?$vector@VShapeHandle@shape_inference@machina@@V?$allocator@VShapeHandle@shape_inference@machina@@@std@@@8@@Z
  ?input@OpKernelContext@machina@@QEAA?AVStatus@lts_20250512@absl@@V?$basic_string_view@DU?$char_traits@D@std@@@std@@PEAPEBVTensor@2@@Z
  ?input@OpKernelContext@machina@@QEBAAEBVTensor@2@H@Z
  ?insert@DialectRegistry@mlir@@QEAAXVTypeID@2@VStringRef@toolchain@@AEBV?$function@$$A6APEAVDialect@mlir@@PEAVMLIRContext@2@@Z@std@@@Z
  ?loadAllAvailableDialects@MLIRContext@mlir@@QEAAXXZ
  ?make_safe@machina@@YA?AV?$unique_ptr@UTF_Buffer@@UTFBufferDeleter@detail@machina@@@std@@PEAUTF_Buffer@@@Z
  ?make_safe@machina@@YA?AV?$unique_ptr@UTSL_Status@@UTFStatusDeleter@detail@machina@@@std@@PEAUTSL_Status@@@Z
  ?make_safe@machina@@YA?AV?$unique_ptr@U_object@@UPyDecrefDeleter@detail@machina@@@std@@PEAU_object@@@Z
  ?name@Node@machina@@QEBAAEBV?$basic_string@DU?$char_traits@D@std@@V?$allocator@D@2@@std@@XZ
  ?num_devices@Mesh@dtensor@machina@@QEBA_JXZ
  ?num_shards_for_dim@Layout@dtensor@machina@@QEBA_KH@Z
  ?op_def@Node@machina@@QEBAAEBVOpDef@2@XZ
  ?parseSourceFile@mlir@@YA?AULogicalResult@toolchain@@AEBVSourceMgr@3@PEAVBlock@1@AEBVParserConfig@1@PEAVLocationAttr@1@@Z
  ?pywrap_library_dependency_symbol@python@machina@@YAXXZ
  ?readCheckFile@FileCheck@toolchain@@QEAA_NAEAVSourceMgr@2@VStringRef@2@PEAU?$pair@II@std@@@Z
  ?record_persistent_memory_allocation@OpKernelContext@machina@@QEAAX_J0@Z
  ?remove@Operation@mlir@@QEAAXXZ
  ?report@InFlightDiagnostic@mlir@@QEAAXXZ
  ?requested_device@Node@machina@@QEBAAEBV?$basic_string@DU?$char_traits@D@std@@V?$allocator@D@2@@std@@XZ
  ?set_field_comparator@MessageDifferencer@util@protobuf@google@@QEAAXPEAVDefaultFieldComparator@234@@Z
  ?set_output@InferenceContext@shape_inference@machina@@QEAA?AVStatus@lts_20250512@absl@@V?$basic_string_view@DU?$char_traits@D@std@@@std@@AEBV?$vector@VShapeHandle@shape_inference@machina@@V?$allocator@VShapeHandle@shape_inference@machina@@@std@@@8@@Z
  ?set_output@OpKernelContext@machina@@QEAAXHAEBVTensor@2@@Z
  ?set_requested_device@Node@machina@@QEAAXAEBV?$basic_string@DU?$char_traits@D@std@@V?$allocator@D@2@@std@@@Z
  ?set_tf2_execution@machina@@YAX_N@Z
  ?sharding_spec_strs@Layout@dtensor@machina@@QEBA?AV?$vector@V?$basic_string@DU?$char_traits@D@std@@V?$allocator@D@2@@std@@V?$allocator@V?$basic_string@DU?$char_traits@D@std@@V?$allocator@D@2@@std@@@2@@std@@XZ
  ?tensor_data@Tensor@machina@@QEBA?AV?$basic_string_view@DU?$char_traits@D@std@@@std@@XZ
  ?tensor_float_32_execution_enabled@tsl@@YA_NXZ
  ?tf2_execution_enabled@machina@@YA_NXZ
  ?transferNodesFromList@?$ilist_traits@VOperation@mlir@@@toolchain@@QEAAXAEAU12@V?$ilist_iterator@U?$node_options@VOperation@mlir@@$0A@$0A@X$0A@X@ilist_detail@toolchain@@$0A@$0A@@2@1@Z
  ?type_string@Node@machina@@QEBAAEBV?$basic_string@DU?$char_traits@D@std@@V?$allocator@D@2@@std@@XZ
  ?verify@mlir@@YA?AULogicalResult@toolchain@@PEAVOperation@1@_N@Z
  ?verifyInvariants@ModuleOp@mlir@@QEAA?AULogicalResult@toolchain@@XZ
  ?versions@Graph@machina@@QEBAAEBVVersionDef@2@XZ
  TF_CreateFunction
  TF_SetTracingImplementation
; go/keep-sorted end
